200057d8 b .LANCHOR0
20003454 b .LANCHOR0
20007760 b .LANCHOR0
200056f4 b .LANCHOR0
20007758 b .LANCHOR0
200056f0 b .LANCHOR0
20003470 b .LANCHOR0
200034c4 b .LANCHOR0
20008230 b .LANCHOR0
20001010 d .LANCHOR0
20005818 b .LANCHOR0
200056c0 b .LANCHOR0
20003418 b .LANCHOR0
200056a0 b .LANCHOR0
200034f8 b .LANCHOR0
20005680 b .LANCHOR0
20005b04 b .LANCHOR0
20007b0c b .LANCHOR0
200015f4 d .LANCHOR0
20007b18 b .LANCHOR0
20007b80 b .LANCHOR0
200014a4 d .LANCHOR0
200014a0 d .LANCHOR0
200052e0 b .LANCHOR0
200033e8 b .LANCHOR0
2000141e d .LANCHOR0
2000529c b .LANCHOR0
20001334 d .LANCHOR0
20001d94 b .LANCHOR0
20007bcc b .LANCHOR0
20007ba0 b .LANCHOR0
20005296 b .LANCHOR0
20004490 b .LANCHOR0
20004188 b .LANCHOR0
20001d58 b .LANCHOR0
2000528c b .LANCHOR0
200050f4 b .LANCHOR0
20007740 b .LANCHOR0
200050a8 b .LANCHOR0
20001a70 b .LANCHOR0
20004270 b .LANCHOR0
0807332c t .LANCHOR0
2000439c b .LANCHOR0
20004ac0 b .LANCHOR0
20004468 b .LANCHOR0
20007674 b .LANCHOR0
08073218 t .LANCHOR0
20001b80 b .LANCHOR0
20001540 d .LANCHOR0
20007660 b .LANCHOR0
20007648 b .LANCHOR0
200060c0 b .LANCHOR0
200060c4 b .LANCHOR0
200060d0 b .LANCHOR0
08070a60 t .LANCHOR0
08071720 t .LANCHOR0
0807b9e8 t .LANCHOR0
20001ce0 b .LANCHOR0
20007644 b .LANCHOR0
20004438 b .LANCHOR0
08087d28 t .LANCHOR0
0807120c t .LANCHOR0
200075f8 b .LANCHOR0
200075fc b .LANCHOR0
20001c3c b .LANCHOR0
2000761c b .LANCHOR0
20007618 b .LANCHOR0
20003468 b .LANCHOR0
20001c60 b .LANCHOR1
20007628 b .LANCHOR1
08087c28 t .LANCHOR1
20004436 b .LANCHOR1
0807b9a8 t .LANCHOR1
20001cec b .LANCHOR1
20007638 b .LANCHOR1
08070a2c t .LANCHOR1
08071648 t .LANCHOR1
20001538 d .LANCHOR1
20007650 b .LANCHOR1
20001b78 b .LANCHOR1
20007658 b .LANCHOR1
08073228 t .LANCHOR1
200076b0 b .LANCHOR1
20004384 b .LANCHOR1
200045d0 b .LANCHOR1
2000580c b .LANCHOR1
20004268 b .LANCHOR1
20004b98 b .LANCHOR1
200050c0 b .LANCHOR1
20004180 b .LANCHOR1
20005290 b .LANCHOR1
20001d8c b .LANCHOR1
20004470 b .LANCHOR1
200076d0 b .LANCHOR1
20007bb4 b .LANCHOR1
200021bc b .LANCHOR1
200040c0 b .LANCHOR1
2000529a b .LANCHOR1
200015bc d .LANCHOR1
20001430 d .LANCHOR1
200014e4 d .LANCHOR1
200059b0 b .LANCHOR1
200034f0 b .LANCHOR1
200032c0 b .LANCHOR1
20007a8c b .LANCHOR1
20007bec b .LANCHOR1
20001500 d .LANCHOR1
2000569c b .LANCHOR1
200033ec b .LANCHOR1
200034a0 b .LANCHOR1
2000823c b .LANCHOR1
20003498 b .LANCHOR1
0807354c t .LANCHOR1
080735cc t .LANCHOR1
08073600 t .LANCHOR1
20001528 d .LANCHOR1
200015b2 d .LANCHOR1
20003469 b .LANCHOR1
20007610 b .LANCHOR1
20003458 b .LANCHOR1
200042ec b .LANCHOR10
200052b0 b .LANCHOR10
200076bc b .LANCHOR10
08089084 t .LANCHOR10
20007b68 b .LANCHOR10
08080828 t .LANCHOR10
0807ba28 t .LANCHOR10
08073fc8 t .LANCHOR10
20004464 b .LANCHOR10
08071768 t .LANCHOR10
20007750 b .LANCHOR10
20004430 b .LANCHOR11
200076a0 b .LANCHOR11
200076e4 b .LANCHOR11
200042f4 b .LANCHOR11
200052b4 b .LANCHOR11
20007a40 b .LANCHOR11
2000582c b .LANCHOR11
200015b8 d .LANCHOR11
200042f0 b .LANCHOR12
200076e8 b .LANCHOR12
08071780 t .LANCHOR12
20004450 b .LANCHOR12
200076a8 b .LANCHOR12
20005b00 b .LANCHOR12
20007b70 b .LANCHOR12
20007a30 b .LANCHOR12
200052bc b .LANCHOR12
20001424 d .LANCHOR13
2000443c b .LANCHOR13
200043a8 b .LANCHOR13
200076fc b .LANCHOR13
20007a48 b .LANCHOR13
2000767c b .LANCHOR13
200015c4 d .LANCHOR13
20005af4 b .LANCHOR13
08072dec t .LANCHOR14
20007b2c b .LANCHOR14
20001420 d .LANCHOR14
08073624 t .LANCHOR14
2000775c b .LANCHOR14
20001350 d .LANCHOR14
200076f8 b .LANCHOR14
200076a4 b .LANCHOR14
08071798 t .LANCHOR15
20007a3c b .LANCHOR15
08075a04 t .LANCHOR15
20007b50 b .LANCHOR15
20004388 b .LANCHOR15
200076b4 b .LANCHOR15
20007744 b .LANCHOR15
200052a8 b .LANCHOR15
2000437c b .LANCHOR16
200076f4 b .LANCHOR16
200052a4 b .LANCHOR16
080718d0 t .LANCHOR16
20007b94 b .LANCHOR16
200079c8 b .LANCHOR16
200076c0 b .LANCHOR16
080755a0 t .LANCHOR16
08073fb0 t .LANCHOR17
20007684 b .LANCHOR17
20007734 b .LANCHOR17
20004290 b .LANCHOR17
080717b0 t .LANCHOR17
200015b4 d .LANCHOR17
200076f0 b .LANCHOR18
20004378 b .LANCHOR18
080718a4 t .LANCHOR18
080755a8 t .LANCHOR18
2000768c b .LANCHOR18
20007b90 b .LANCHOR18
20001530 d .LANCHOR19
20007b5c b .LANCHOR19
2000769c b .LANCHOR19
20004380 b .LANCHOR19
08071744 t .LANCHOR19
200076ec b .LANCHOR19
200054c0 b .LANCHOR2
20004250 b .LANCHOR2
20004434 b .LANCHOR2
20005b40 b .LANCHOR2
200076cc b .LANCHOR2
08070a44 t .LANCHOR2
08082c28 t .LANCHOR2
20007be8 b .LANCHOR2
0807ac58 t .LANCHOR2
200025e0 b .LANCHOR2
200034b0 b .LANCHOR2
20001434 d .LANCHOR2
20003448 b .LANCHOR2
20007630 b .LANCHOR2
200033f0 b .LANCHOR2
20001a78 b .LANCHOR2
08079324 t .LANCHOR2
200034dc b .LANCHOR2
08071804 t .LANCHOR2
20007a88 b .LANCHOR2
200040e0 b .LANCHOR2
20007b30 b .LANCHOR2
200044d0 b .LANCHOR2
20007a2c b .LANCHOR2
20001c40 b .LANCHOR2
20005694 b .LANCHOR2
200050c8 b .LANCHOR2
20004488 b .LANCHOR2
20001cf0 b .LANCHOR2
20001d88 b .LANCHOR2
20005698 b .LANCHOR2
200015f8 d .LANCHOR2
20005298 b .LANCHOR2
200043b0 b .LANCHOR2
20007640 b .LANCHOR2
20007bb8 b .LANCHOR2
20005808 b .LANCHOR2
20004b90 b .LANCHOR2
20001d0c b .LANCHOR2
2000764c b .LANCHOR2
200076ac b .LANCHOR2
20007668 b .LANCHOR20
08071758 t .LANCHOR20
2000581c b .LANCHOR20
20007b74 b .LANCHOR20
2000774c b .LANCHOR20
20004274 b .LANCHOR20
08071834 t .LANCHOR21
20005a88 b .LANCHOR21
200015ae d .LANCHOR21
20007730 b .LANCHOR21
20007b20 b .LANCHOR21
200043a0 b .LANCHOR21
20007b98 b .LANCHOR22
20007754 b .LANCHOR22
08071854 t .LANCHOR22
20007664 b .LANCHOR22
200059a8 b .LANCHOR22
200015b0 d .LANCHOR23
20007b64 b .LANCHOR23
08073e8c t .LANCHOR23
200015c0 d .LANCHOR24
200015ac d .LANCHOR24
20007690 b .LANCHOR25
20007b60 b .LANCHOR25
200076c4 b .LANCHOR26
20007b84 b .LANCHOR26
200076b8 b .LANCHOR27
20007b58 b .LANCHOR27
20007b78 b .LANCHOR28
200076c6 b .LANCHOR28
20007620 b .LANCHOR3
200015fc d .LANCHOR3
2000448c b .LANCHOR3
200052b8 b .LANCHOR3
200042f8 b .LANCHOR3
20003460 b .LANCHOR3
200050b8 b .LANCHOR3
200013e8 d .LANCHOR3
200034c0 b .LANCHOR3
200049bc b .LANCHOR3
2000568c b .LANCHOR3
20007680 b .LANCHOR3
20001d10 b .LANCHOR3
20007be0 b .LANCHOR3
20001308 d .LANCHOR3
200034ec b .LANCHOR3
08079320 t .LANCHOR3
200076c8 b .LANCHOR3
08084a28 t .LANCHOR3
08070a50 t .LANCHOR3
200021b8 b .LANCHOR3
20005ad8 b .LANCHOR3
0807b498 t .LANCHOR3
20004228 b .LANCHOR3
20007ba4 b .LANCHOR3
20007a38 b .LANCHOR3
20001d90 b .LANCHOR3
20007b7c b .LANCHOR3
200052f0 b .LANCHOR3
2000444c b .LANCHOR3
2000444d b .LANCHOR4
20007bc8 b .LANCHOR4
200013f4 d .LANCHOR4
200034c8 b .LANCHOR4
200052d8 b .LANCHOR4
2000822c b .LANCHOR4
20004484 b .LANCHOR4
200015c2 d .LANCHOR4
20007990 b .LANCHOR4
20001b84 b .LANCHOR4
2000344c b .LANCHOR4
20005834 b .LANCHOR4
20007688 b .LANCHOR4
200049b8 b .LANCHOR4
0807a458 t .LANCHOR4
20004258 b .LANCHOR4
20005690 b .LANCHOR4
20007704 b .LANCHOR4
08080c28 t .LANCHOR4
20001d09 b .LANCHOR4
20007be4 b .LANCHOR4
200034f4 b .LANCHOR4
0807a298 t .LANCHOR4
200042a4 b .LANCHOR4
200054b0 b .LANCHOR4
200015c8 d .LANCHOR5
20004465 b .LANCHOR5
0807e828 t .LANCHOR5
200040b8 b .LANCHOR5
0807188c t .LANCHOR5
20004294 b .LANCHOR5
20001400 d .LANCHOR5
20008234 b .LANCHOR5
2000766c b .LANCHOR5
200052c0 b .LANCHOR5
08089094 t .LANCHOR5
20004260 b .LANCHOR5
0807ad98 t .LANCHOR5
20001d50 b .LANCHOR5
20007bdc b .LANCHOR5
20007b54 b .LANCHOR5
200076e0 b .LANCHOR5
20005ecc b .LANCHOR5
20003450 b .LANCHOR5
20001b88 b .LANCHOR5
20007738 b .LANCHOR6
20007678 b .LANCHOR6
20001d08 b .LANCHOR6
200015cc d .LANCHOR6
2000134c d .LANCHOR6
200052d0 b .LANCHOR6
2000345c b .LANCHOR6
20005d00 b .LANCHOR6
20007b88 b .LANCHOR6
2000438c b .LANCHOR6
080890a0 t .LANCHOR6
08071874 t .LANCHOR6
20004460 b .LANCHOR6
20007bd4 b .LANCHOR6
20001410 d .LANCHOR6
20008238 b .LANCHOR6
08084628 t .LANCHOR6
0807e728 t .LANCHOR6
20007b28 b .LANCHOR7
08084828 t .LANCHOR7
20005af0 b .LANCHOR7
20004461 b .LANCHOR7
20007a34 b .LANCHOR7
20007bd0 b .LANCHOR7
20007748 b .LANCHOR7
200052c8 b .LANCHOR7
0807b398 t .LANCHOR7
20007694 b .LANCHOR7
2000426c b .LANCHOR7
20007bf4 b .LANCHOR7
080718b8 t .LANCHOR7
200042b4 b .LANCHOR7
08071b60 t .LANCHOR8
20007b8c b .LANCHOR8
20004264 b .LANCHOR8
20005a8c b .LANCHOR8
20007bf0 b .LANCHOR8
20004462 b .LANCHOR8
20007670 b .LANCHOR8
20007bd8 b .LANCHOR8
08084428 t .LANCHOR8
200079c0 b .LANCHOR8
200052c4 b .LANCHOR8
20007700 b .LANCHOR8
0807a358 t .LANCHOR8
08087a28 t .LANCHOR9
20004463 b .LANCHOR9
200052cc b .LANCHOR9
20007698 b .LANCHOR9
20005dbc b .LANCHOR9
08072d88 t .LANCHOR9
0807181c t .LANCHOR9
2000773c b .LANCHOR9
200079c4 b .LANCHOR9
0807aa58 t .LANCHOR9
20007b4c b .LANCHOR9
0806f018 T __adddf3
0806fa18 T __addsf3
0806f83c T __aeabi_cdcmpeq
0806f83c T __aeabi_cdcmple
0806f82c T __aeabi_cdrcmple
0806ff40 T __aeabi_cfcmpeq
0806ff40 T __aeabi_cfcmple
0806ff38 T __aeabi_cfrcmple
0806f96c T __aeabi_d2f
0806f8dc T __aeabi_d2iz
08070084 T __aeabi_d2lz
0806f92c T __aeabi_d2uiz
080700b4 T __aeabi_d2ulz
0806f018 T __aeabi_dadd
0806f84c T __aeabi_dcmpeq
0806f888 T __aeabi_dcmpge
0806f89c T __aeabi_dcmpgt
0806f874 T __aeabi_dcmple
0806f860 T __aeabi_dcmplt
0806f8b0 T __aeabi_dcmpun
0806f5d0 T __aeabi_ddiv
0806f37c T __aeabi_dmul
0806f00c T __aeabi_drsub
0806f014 T __aeabi_dsub
0806f2d4 T __aeabi_f2d
0806fa18 T __aeabi_fadd
0806ff50 T __aeabi_fcmpeq
0806ff8c T __aeabi_fcmpge
0806ffa0 T __aeabi_fcmpgt
0806ff78 T __aeabi_fcmple
0806ff64 T __aeabi_fcmplt
0806fd90 T __aeabi_fdiv
0806fc28 T __aeabi_fmul
0806fa0c T __aeabi_frsub
0806fa14 T __aeabi_fsub
0806f2b0 T __aeabi_i2d
0806fb80 T __aeabi_i2f
080703e8 W __aeabi_idiv0
0806f320 T __aeabi_l2d
0806fbac T __aeabi_l2f
080703e8 W __aeabi_ldiv0
0806ffb4 T __aeabi_ldivmod
0806f290 T __aeabi_ui2d
0806fb78 T __aeabi_ui2f
0806f310 T __aeabi_ul2d
0806fb9c T __aeabi_ul2f
08070054 T __aeabi_uldivmod
0806f7b0 T __cmpdf2
0806fed8 T __cmpsf2
0806ee60 T __d2b
0806f5d0 T __divdf3
0806fd90 T __divsf3
         U __dso_handle
0806f7b0 T __eqdf2
0806fed8 T __eqsf2
0806cc3c T __errno
0806f2d4 T __extendsfdf2
20001600 D __fdlib_version
08070084 T __fixdfdi
0806f8dc T __fixdfsi
080700b4 T __fixunsdfdi
0806f92c T __fixunsdfsi
0806f320 T __floatdidf
0806fbac T __floatdisf
0806f2b0 T __floatsidf
0806fb80 T __floatsisf
0806f310 T __floatundidf
0806fb9c T __floatundisf
0806f290 T __floatunsidf
0806fb78 T __floatunsisf
0806f7a0 T __gedf2
0806fec8 T __gesf2
08037804 T __get_PRIMASK
0806f7a0 T __gtdf2
0806fec8 T __gtsf2
0806ea7c T __hi0bits
0806eb16 T __i2b
08069328 T __ieee754_acos
080697c8 T __ieee754_asin
08069bb8 T __ieee754_atan2
08069d58 T __ieee754_cosh
08069e88 T __ieee754_exp
0806a154 T __ieee754_fmod
0806a348 T __ieee754_log
0806a6e0 T __ieee754_log10
0806a7e8 T __ieee754_pow
0806b1d0 T __ieee754_rem_pio2
0806b5ac T __ieee754_remainder
0806b6f8 T __ieee754_sinh
0806b858 T __ieee754_sqrt
08068500 T __isinfd
0806851e T __isnand
0806b9b0 T __kernel_cos
0806bb6c T __kernel_rem_pio2
0806c200 T __kernel_sin
0806c368 T __kernel_tan
0806f7a8 T __ledf2
0806fed0 T __lesf2
0806eabc T __lo0bits
0806ecc8 T __lshift
0806f7a8 T __ltdf2
0806fed0 T __ltsf2
0806ed6a T __mcmp
0806eda2 T __mdiff
0808ce20 T __mprec_bigtens
0808cd58 T __mprec_tens
0806f37c T __muldf3
0806fc28 T __mulsf3
0806ea06 T __multadd
0806eb28 T __multiply
0806f7b0 T __nedf2
0806fed8 T __nesf2
0806ec48 T __pow5mult
0803780c T __set_PRIMASK
080686e4 T __signbitd
0806ef0c T __ssprint_r
0806f014 T __subdf3
0806fa14 T __subsf3
0806f96c T __truncdfsf2
080700fc T __udivmoddi4
0806f8b0 T __unorddf2
00000000 A __use_no_semihosting_swi
0806e9a8 T _Balloc
0806e9f4 T _Bfree
08048624 T _calloc_r
0806de78 T _dtoa_r
08043a6c T _free_r
20001a30 D _impure_ptr
0806cc80 T _localeconv_r
080485b8 T _malloc_r
080485dc T _realloc_r
0806cc48 T _setlocale_r
         U _start
0806cdec T _svfprintf_r
0806cd78 T _vsnprintf_r
08020360 T _Z10ClrStartup12CLR_SETTINGS
080576ac T _Z10emi_driverPj
080279b0 T _Z10Events_Getj
08027970 T _Z10Events_Setj
0805f834 T _Z10findMedianPti
08034dcc T _Z10hal_printfPKcz
08029884 T _Z10High_Powerv
0803bca0 T _Z10I2C_CancelP15I2C_HAL_XACTIONb
0805ec94 T _Z10ISR_sdProcP38CLR_RT_HeapBlock_NativeEventDispatcher
080676f8 T _Z10mmexchangeP11HeapTrack_tii
0805f7f4 T _Z10partitionsiiPs
0803da40 T _Z10Piezo_Tonejj
0803d640 T _Z10RCC_Configv
08030d08 T _Z10RT_Disposev
0803641c T _Z10USART_ReadiPcj
08029718 T _Z10WakeUnlockm
0803d47c T _Z11GPIO_ConfigRK17SPI_CONFIGURATION
0803c110 T _Z11GPIO_GetPinj
0805bc68 T _Z11hal_dac_sett
08034de8 T _Z11hal_fprintfiPKcz
08034edc T _Z11hal_stricmpPKcS0_
08034db4 T _Z11hal_vprintfPKcSt9__va_list
0803bd40 T _Z11I2C_EnqueueP15I2C_HAL_XACTION
08067794 T _Z11maxSortDownP11HeapTrack_ti
08067754 T _Z11minSortDownP11HeapTrack_ti
08029760 T _Z11pwr_get_hsii
0803a838 T _Z11TimeHandlerPv
08035860 T _Z11USART_Flushi
0802a844 T _Z11USART_pausev
08035f60 T _Z11USART_WriteiPKcj
080299cc T _Z12CalibrateHSIv
080533fc T _Z12DigitalToHexh
0802f170 T _Z12GetCPUSerialPht
0805fe5c T _Z12getUnwrapMaxv
0803c120 T _Z12GPIO_GetPortj
08029954 T _Z12HAL_AssertExv
0805bc38 T _Z12hal_dac_initv
08034e04 T _Z12hal_snprintfPcjPKcz
08034ea4 T _Z12hal_strcpy_sPcjPKc
08034e90 T _Z12hal_strlen_sPKc
08034d34 T _Z12hal_vfprintfiPKcSt9__va_list
0803ba28 T _Z12HeapLocationRPhRj
080678a0 T _Z12HeapTrackNewi
08027af8 T _Z12LCD_GetWidthv
08033a84 T _Z12LowLevelInitv
080624d0 T _Z12processPhasePtS_S_i
08032478 T _Z12radio_spi_goh
08033674 T _Z12si446x_resetv
08033910 T _Z12SOCKETS_ReadiPcj
0802a6c4 T _Z12USART_reinitv
080296b4 T _Z12WakeLockInitv
0803adc8 T _Z13AD_ADChannelsv
0803aed8 T _Z13AD_Initialize14ANALOG_CHANNELi
0803ab1c T _Z13BackLight_Setj
0805bcb0 T _Z13DA_DAChannelsv
0805bc88 T _Z13DA_Initialize10DA_CHANNELi
080672e4 T _Z13datastore_absi
0805ff64 T _Z13detectHandlerjjPv
0803ab64 T _Z13FS_AddVolumesv
0803ab68 T _Z13FS_Initializev
0805ff3c T _Z13getAbsOffsetIv
0805ff2c T _Z13getAbsOffsetQv
0805fe70 T _Z13getUnwrapZerov
0802996c T _Z13GetWakeLockedv
08034e58 T _Z13hal_strncpy_sPcjPKcj
08034d2c T _Z13hal_vsnprintfPcjPKcSt9__va_list
0802a398 T _Z13ISR_RTC_ALARMPv
08027afc T _Z13LCD_GetHeightv
08057528 T _Z13LinkArraySizev
080288dc T _Z13MFUpdate_Openj
0805fffc T _Z13Radar_HandlerPv
08030a2c T _Z13Radio_HandlerjjPv
08032ba4 T _Z13si446x_hal_rxh
08033914 T _Z13SOCKETS_Flushi
0803390c T _Z13SOCKETS_WriteiPKcj
080367a0 T _Z13USB_ConfigureiPK25USB_DYNAMIC_CONFIGURATION
0805340c T _Z14ByteArrayToHexPhii
0805fa08 T _Z14calculatePhasePtS_S_issitttt
0803ab28 T _Z14Charger_StatusRj
08040c68 T _Z14CLR_SoftRebootv
08029d9c T _Z14CPU_Initializev
0802a158 T _Z14CPU_Radio_SendhPvt
0803ce34 T _Z14CPU_SPI_Enable17SPI_CONFIGURATION
0806042c T _Z14FPGA_RadarInitPtS_j
0803c2a8 T _Z14GPIO_GetNumberP12GPIO_TypeDeft
08034f80 T _Z14HAL_Initializev
0803bbc0 T _Z14I2C_Initializev
0803bd48 T _Z14Ink_Initializev
0803ab88 T _Z14ISR_ADC_PERIODPv
08027aec T _Z14LCD_Initializev
08027d14 T _Z14MAC_InitializeP15MACEventHandlerhhhPv
08028cc4 T _Z14MFUpdate_ClearP8MFUpdate
080324c8 T _Z14radio_shutdowni
08060ab4 T _Z14ReplyToCommandP10WP_MessagebbPvi
08067844 T _Z14ResetHeapTrackP11HeapTrack_ti
08060a30 T _Z14SendAckHandlerPvt11NetOpStatush
08043d50 T _Z14SetResult_INT8R17CLR_RT_StackFramea
0803d428 T _Z14SPI_StructInitRK17SPI_CONFIGURATION
0802a644 T _Z14USART2_HandlerPv
0803679c T _Z14USB_Initializei
080367a8 T _Z14USB_OpenStreamiii
08036910 T _Z14VirtTimer_Stoph
0803b498 T _Z15AD_StopSamplingv
0803ad5c T _Z15AD_Uninitialize14ANALOG_CHANNEL
0803b0bc T _Z15AD_Uninitializev
0803ab3c T _Z15Battery_VoltageRi
08027474 T _Z15beaconSchedulerPv
08023bb8 T _Z15CLR_SafeSprintfRPcRjPKcz
08040754 T _Z15CompareResourcePKvS0_
0802a2a4 T _Z15CPU_Radio_Sleephh
0803cf28 T _Z15CPU_SPI_GetPinsjRjS_S_
080266fc T _Z15CPU_SystemClockt
08026774 T _Z15CPU_TicksToTimeyt
0805bc9c T _Z15DA_Uninitialize10DA_CHANNEL
0805802c T _Z15fastgrnn_driverPj
0805fe84 T _Z15getDisplacementi
0803c13c T _Z15GPIO_GetPortPtrj
0803b9b4 T _Z15hal_adc_getDataPthh
08067908 T _Z15HeapTrackInsertP11HeapTrack_ti
08067a28 T _Z15HeapTrackMedianP11HeapTrack_t
08030b6c T _Z15InitializeTimerv
08030b48 T _Z15ISR_RT_DebuggerPv
08027d70 T _Z15MAC_ReconfigurePv
080621dc T _Z15ManagedCallbackjj
08028bf8 T _Z15MFUpdate_Createj
08028bbc T _Z15MFUpdate_Deletej
0805f7e8 T _Z15PWM_PWMChannelsv
0804024c T _Z15queueVTCallbackP16VirtualTimerInfo
08043db4 T _Z15SetResult_floatR17CLR_RT_StackFramef
08043d5c T _Z15SetResult_INT32R17CLR_RT_StackFramei
08043d68 T _Z15SetResult_UINT8R17CLR_RT_StackFrameh
080317bc T _Z15ShutdownDriversv
080324f8 T _Z15si446x_hal_initP17RadioEventHandlerhh
08032a60 T _Z15si446x_hal_sendhPvt
08033308 T _Z15si446x_start_txhht
08034c0c T _Z15Time_GetUtcTimev
08034bec T _Z15Time_Initializev
08034c1c T _Z15Time_SetUtcTimexb
080367ac T _Z15USB_CloseStreami
080367bc T _Z15USB_DiscardDataij
080368d4 T _Z15VirtTimer_Starth
08034bd8 T _Z15Watchdog_EnablejPFvPvES_
0802587c T _Z16ClearMsgContentsP23IEEE802_15_4_Message_t2
08023b8c T _Z16CLR_SafeSprintfVRPcRjPKcSt9__va_list
08026bbc T _Z16CPU_AddClockTimety
0803cff0 T _Z16CPU_SPI_ReadByteRK17SPI_CONFIGURATION
0805ffb0 T _Z16dataAlertHandlerjjPv
08027ae8 T _Z16FreeManagedEventhhtj
08025840 T _Z16GetHalSystemInfoR13HalSystemInfo
0803c32c T _Z16GPIO_GetCallBackj
0803c128 T _Z16GPIO_GetExtiLinej
08035024 T _Z16HAL_Uninitializev
0803bc28 T _Z16I2C_Uninitializev
0803bd50 T _Z16Ink_Uninitializev
08057538 T _Z16InterruptRecordsv
08027af0 T _Z16LCD_Uninitializev
0805752c T _Z16LinkMRUArraySizev
080281ac T _Z16MAC_UnInitializev
08028b78 T _Z16MFUpdate_InstalljPhi
08057530 T _Z16PayloadArraySizev
0803da38 T _Z16Piezo_Initializev
0805ac14 T _Z16PostManagedEventhhtj
08030a1c T _Z16Radio_Handler_LRjjPv
08043df4 T _Z16SetResult_doubleR17CLR_RT_StackFramed
08043d74 T _Z16SetResult_UINT16R17CLR_RT_StackFramet
08043d80 T _Z16SetResult_UINT32R17CLR_RT_StackFramej
08043ea4 T _Z16SetResult_UINT64R17CLR_RT_StackFramey
080337cc T _Z16si446x_fifo_infoh
080334f0 T _Z16si446x_func_infov
08032ca0 T _Z16si446x_hal_sleeph
080333fc T _Z16si446x_part_infov
08034c98 T _Z16Time_DaysInMonthiiPi
08035628 T _Z16USART_Initializeiiiiii
080367a4 T _Z16USB_Uninitializei
08036948 T _Z16VirtTimer_Changehjjjh
08034be0 T _Z16Watchdog_Disablev
08040c7c T _Z17CLR_DebuggerBreakv
08029da8 T _Z17CPU_JTAG_Attachedv
0803cf5c T _Z17CPU_SPI_WriteByteRK17SPI_CONFIGURATIONh
0802a8d0 T _Z17CPU_USART_GetPinsiRjS_S_S_
080255ec T _Z17DebuggerPort_ReadiPcj
08027940 T _Z17Events_Initializev
080279e0 T _Z17Events_MaskedReadj
0803c438 T _Z17GPIO_ConfigurePinP12GPIO_TypeDeft16GPIOMode_TypeDef17GPIOSpeed_TypeDef
0803c2f0 T _Z17GPIO_GetIRQNumberj
08057534 T _Z17InlineBufferCountv
080282a4 T _Z17MAC_EnqueueToSendthPvt
08027f20 T _Z17MAC_GetNextPacketPPh
08028b00 T _Z17MFUpdate_ValidatejPhi
0803a848 T _Z17SetCompareHandlerPv
08032eac T _Z17si446x_hal_cca_mshj
08034c38 T _Z17Time_GetLocalTimev
08034c68 T _Z17Time_ToSystemTimexP10SYSTEMTIME
08034bfc T _Z17Time_Uninitializev
08034be4 T _Z17Watchdog_ResetCpuv
0803ab34 T _Z18Battery_Initializev
0802548c T _Z18Buttons_Initializev
0803ab20 T _Z18Charger_Initializev
0803c6bc T _Z18CPU_GPIO_PinIsBusyj
0802a20c T _Z18CPU_Radio_TurnOnRxh
0803d658 T _Z18CPU_SPI_Initializev
0803cf58 T _Z18CPU_SPI_PortsCountv
08026738 T _Z18CPU_TicksPerSecondt
08027738 T _Z18csmaReceiveHandlerPvt
080277e0 T _Z18csmaSendAckHandlerPvt11NetOpStatush
0803dc10 T _Z18CustomHeapLocationRPhRj
08025628 T _Z18DebuggerPort_Flushi
08025554 T _Z18DebuggerPort_WriteiPKcj
0803ab78 T _Z18Gesture_Initializev
0805ff4c T _Z18getCountOverTargetv
0806059c T _Z18getNetDisplacementi
08034e20 T _Z18hal_snprintf_floatPcjPKcf
08030dc4 T _Z18ISR_REALTIME_TIMERPv
08027b04 T _Z18LCD_GetOrientationv
08028a90 T _Z18MFUpdate_AddPacketjiPhiS_i
080338fc T _Z18Network_Initializev
0802b714 T _Z18OMACReceiveHandlerPvt
0802ac78 T _Z18OMACSendAckHandlerPvt11NetOpStatush
0803da3c T _Z18Piezo_Uninitializev
08033158 T _Z18radio_comm_GetResphPh
08033204 T _Z18radio_comm_PollCTSv
08033264 T _Z18radio_comm_SendCmdjPKh
08033120 T _Z18si446x_get_ph_pendv
08032b00 T _Z18si446x_hal_send_tshPvtj
08032900 T _Z18si446x_packet_sendhPhhjih
0803da8c T _Z18SimpleHeap_ReleasePv
08033904 T _Z18SOCKETS_Initializei
08033920 T _Z18SOCKETS_IsUsingSsli
08024330 T _Z18SUPPORT_ComputeCRCPKvij
0805f890 T _Z18unwrapCrossProductssi
08036580 T _Z18USART_Managed_ReadiPcj
080356b0 T _Z18USART_Uninitializei
08036a3c T _Z18VirtTimer_GetTicksh
0803687c T _Z18VirtTimer_SetTimerhjjjjPFvPvEh
0805ff5c T _Z18VirtualKey_GetPinsj
0803adcc T _Z19AD_GetPinForChannel14ANALOG_CHANNEL
0803ab48 T _Z19Battery_TemperatureRi
0803c42c T _Z19CPU_GPIO_Attributesj
0803c614 T _Z19CPU_GPIO_DisablePinj13GPIO_RESISTORj13GPIO_ALT_MODE
0803c740 T _Z19CPU_GPIO_GetPinsMapPhj
0803c390 T _Z19CPU_GPIO_Initializev
0803c6e4 T _Z19CPU_GPIO_ReservePinjj
08033924 T _Z19CPU_INTC_Initializev
0802a258 T _Z19CPU_Radio_TurnOffRxh
         U _Z19CPU_USB_ProtectPinsij
0805bcb4 T _Z19DA_GetPinForChannel10DA_CHANNEL
08027aa0 T _Z19Events_SetBoolTimerPjj
0802795c T _Z19Events_Uninitializev
0803532c T _Z19HAL_EnterBooterModev
08034e44 T _Z19hal_snprintf_doublePcjPKcd
08027820 T _Z19HAL_Time_Initializev
08027888 T _Z19HAL_Time_SetComparey
08029494 T _Z19ID_GetSerialNumbersR18OEM_SERIAL_NUMBERS
08027b00 T _Z19LCD_GetBitsPerPixelv
08027dd4 T _Z19MAC_GetMsgIdWithPtrP23IEEE802_15_4_Message_t2
08028318 T _Z19MAC_GetNeighborListPt
080281f4 T _Z19MAC_SendTimeStampedthPvtj
08028738 T _Z19MFUpdate_Initializev
08028d9c T _Z19MFUpdate_InitUpdatePKcR14MFUpdateHeader
0803da28 T _Z19PalEvent_Initializev
080333a4 T _Z19radio_comm_ReadDatahjhPh
080332e4 T _Z19si446x_change_state10si_state_t
08033100 T _Z19si446x_get_afc_infov
080337fc T _Z19si446x_get_propertyhhh
08032d54 T _Z19si446x_hal_tx_powerhi
080333d8 T _Z19si446x_read_rx_fifohPh
0803328c T _Z19si446x_set_propertyhhiz
0803db8c T _Z19SimpleHeap_Allocatej
08034cb0 T _Z19Time_AccDaysInMonthiiPi
08034c84 T _Z19Time_FromSystemTimePK10SYSTEMTIME
08034c58 T _Z19Time_GetMachineTimev
080361c4 T _Z19USART_AddToRxBufferiPcj
080358fc T _Z19USART_CloseAllPortsv
08035c20 T _Z19USART_DiscardBufferij
08034ce8 T _Z19Utility_SafeSprintfRPcRjPKcz
0803ab14 T _Z20BackLight_Initializev
0803ab38 T _Z20Battery_Uninitializev
08025490 T _Z20Buttons_Uninitializev
0803ab24 T _Z20Charger_Uninitializev
08029db8 T _Z20CPU_ChangePowerLevel11POWER_LEVEL
0803c734 T _Z20CPU_GPIO_GetDebouncev
0803c73c T _Z20CPU_GPIO_GetPinCountv
0803c5a8 T _Z20CPU_GPIO_GetPinStatej
0803c738 T _Z20CPU_GPIO_SetDebouncex
0803c5e0 T _Z20CPU_GPIO_SetPinStatejj
08029f50 T _Z20CPU_Radio_GetAddressh
08029e2c T _Z20CPU_Radio_InitializeP17RadioEventHandlerhhh
0802a118 T _Z20CPU_Radio_SendStrobeht
08029fa0 T _Z20CPU_Radio_SetAddressht
0803cdec T _Z20CPU_SPI_Uninitialize17SPI_CONFIGURATION
0803cdac T _Z20CPU_SPI_Uninitializev
0803d1bc T _Z20CPU_SPI_Xaction_StopRK17SPI_CONFIGURATION
08026518 T _Z20CPU_Timer_InitializetjjPFvPvE
0802658c T _Z20CPU_Timer_SetComparety
0802a9e0 T _Z20CPU_USART_Initializeiiiiii
0802a8cc T _Z20CPU_USART_PortsCountv
080279f0 T _Z20Events_WaitForEventsjjj
0803ab80 T _Z20Gesture_Uninitializev
0806058c T _Z20getDetectionFinishedv
080605c8 T _Z20getDisplacementRangei
08027840 T _Z20HAL_Time_CurrentTimev
08027860 T _Z20HAL_Time_TicksToTimey
0803ca54 T _Z20I2C_Internal_GetPinsRjS_
0803ba44 T _Z20I2C_XAction_SetStateP15I2C_HAL_XACTIONh
0804372c T _Z20Interop_Marshal_INT8RK17CLR_RT_StackFramejRa
080287d8 T _Z20MFUpdate_AuthCommandjjPhiS_Ri
08028868 T _Z20MFUpdate_GetPropertyjPKcPhPi
080288a0 T _Z20MFUpdate_SetPropertyjPKcPhi
08033900 T _Z20Network_Uninitializev
08038214 T _Z20PublicDataRxCallbackPv
08038ff0 T _Z20PublicDataTxCallbackPv
0805f7ec T _Z20PWM_GetPinForChannel11PWM_CHANNEL
08033354 T _Z20radio_comm_WriteDatahjhPh
080324f4 T _Z20radio_get_assert_irqv
08032448 T _Z20radio_spi_sel_assertv
08033394 T _Z20si446x_write_tx_fifohPh
08033908 T _Z20SOCKETS_Uninitializei
0803391c T _Z20SOCKETS_UpgradeToSsliPKhjS0_jPKc
0805bcd8 T _Z20SSL_ParseCertificatePKcjS0_P13_X509CertData
08034cc8 T _Z20Utility_SafeSprintfVRPcRjPKcSt9__va_list
08036828 T _Z20VirtTimer_Initializev
08040290 T _Z20VirtualTimerCallbackPv
0803b658 T _Z21AD_ConfigureBatchModePtjjPFvPvES0_
0803addc T _Z21ADC_RCC_Configurationj
080202ec T _Z21ApplicationEntryPointv
0803ab60 T _Z21Battery_Configurationv
0803ab58 T _Z21Battery_StateOfChargeRh
080351a8 T _Z21Checksum_RAMConstantsv
0803c3a0 T _Z21CPU_GPIO_Uninitializev
0803d120 T _Z21CPU_SPI_ReadWriteByteRK17SPI_CONFIGURATIONh
0803d080 T _Z21CPU_SPI_WriteReadByteRK17SPI_CONFIGURATIONh
0803d4d8 T _Z21CPU_SPI_Xaction_StartRK17SPI_CONFIGURATION
080266a8 T _Z21CPU_Timer_GetMaxTicksh
0805bc28 T _Z21DAC_RCC_Configurationv
08060b14 T _Z21ForwardReplyToCommandP10WP_MessagejPvi
08043a8c T _Z21GetAssemblyNativeDataPKc
08060ee0 T _Z21GetFirstMissingPacketP8MFUpdate
08060ea0 T _Z21GetFirstMissingPacketP8MFUpdatePj
08027924 T _Z21HAL_Time_AddClockTimey
08027830 T _Z21HAL_Time_Uninitializev
08035008 T _Z21HAL_UnReserveAllGpiosv
08043754 T _Z21Interop_Marshal_floatRK17CLR_RT_StackFramejRf
08043740 T _Z21Interop_Marshal_INT32RK17CLR_RT_StackFramejRi
080436f0 T _Z21Interop_Marshal_UINT8RK17CLR_RT_StackFramejRh
080283dc T _Z21MAC_GetNeighborStatustPh
080284fc T _Z21MACLayer_UnInitializev
08028824 T _Z21MFUpdate_AuthenticatejPhi
0806085c T _Z21NeighborChangeHandlers
0803da30 T _Z21PalEvent_Uninitializev
0803a654 T _Z21PublicBeaconNCallbackPv
08062208 T _Z21ReceiveDoneCallbackFnPvt
08033598 T _Z21si446x_get_int_statushhh
08033130 T _Z21si446x_get_modem_pendv
0803da64 T _Z21SimpleHeap_InitializePvj
08036a90 T _Z21VirtTimer_GetMaxTicksh
080369dc T _Z21VirtTimer_TicksToTimehy
08034be8 T _Z21Watchdog_ResetCounterv
0803ae7c T _Z22ADC_GPIO_Configurationj
0803adfc T _Z22ADC_NVIC_Configurationj
0803ab18 T _Z22BackLight_Uninitializev
0803ab30 T _Z22Charger_SetTemperatures
080266e8 T _Z22CPU_GetDriftParametersPiS_Px
0802a008 T _Z22CPU_Radio_SetRadioNamea
08029ef0 T _Z22CPU_Radio_UnInitializeh
0803d5d0 T _Z22CPU_SPI_nWrite8_nRead8RK17SPI_CONFIGURATIONPhiS2_ii
08026620 T _Z22CPU_Timer_CurrentTickst
0802a780 T _Z22CPU_USART_Uninitializei
0805bc10 T _Z22DAC_GPIO_Configurationv
0806057c T _Z22getWindowOverThresholdv
0803ba48 T _Z22I2C_XAction_CheckStateP15I2C_HAL_XACTIONh
0803bac0 T _Z22I2C_XActionUnit_IsReadP20I2C_HAL_XACTION_UNIT
08043768 T _Z22Interop_Marshal_doubleRK17CLR_RT_StackFramejRd
08043704 T _Z22Interop_Marshal_UINT16RK17CLR_RT_StackFramejRt
08043718 T _Z22Interop_Marshal_UINT32RK17CLR_RT_StackFramejRj
08027af4 T _Z22LCD_WriteFormattedCharh
08028388 T _Z22MAC_GetMACNeighborListPt
08027ec0 T _Z22MAC_GetPacketWithIndexPPhht
0802dff0 T _Z22PublicTimeSyncCallbackPv
0802af84 T _Z22PushToUpperLayerHelperPv
08027110 T _Z22SendFirstPacketToRadioPv
08033820 T _Z22si446x_get_packet_infohts
080328b8 T _Z22si446x_hal_get_addressh
080328d4 T _Z22si446x_hal_set_addressht
08032e08 T _Z22si446x_hal_set_channelhi
080330dc T _Z22si446x_set_debug_printPFviPKczEj
08034c48 T _Z22Time_GetTimeZoneOffsetv
0803fe88 T _Z22TimeService_Initializev
08035c98 T _Z22USART_ConnectEventSinkiiPvPFvS_jEPS_
08036ab8 T _Z22VirtTimer_GetNextAlarmv
08036ae0 T _Z22VirtTimer_UpdateAlarmsv
08036af0 T _Z22Watchdog_GetSetEnabledjj
08036af8 T _Z22Watchdog_GetSetTimeoutij
08036b08 T _Z22Watchdog_LastOccurenceRxS_RjS0_j
08037050 T _Z23BlockStorage_AddDevicesv
0803c560 T _Z23CPU_GPIO_EnableInputPinjjPFvjjPvE13GPIO_INT_EDGE13GPIO_RESISTOR
08026ac8 T _Z23CPU_MicrosecondsToTicksjt
08026a30 T _Z23CPU_MicrosecondsToTicksyt
0802683c T _Z23CPU_MillisecondsToTicksjt
0802a0bc T _Z23CPU_Radio_ChangeChannelhi
0802a060 T _Z23CPU_Radio_ChangeTxPowerhi
080269a4 T _Z23CPU_TicksToMicrosecondsjt
080268c0 T _Z23CPU_TicksToMicrosecondsyt
08025494 T _Z23DebuggerPort_Initializei
080256f4 T _Z23DebuggerPort_IsUsingSsli
0805feb0 T _Z23getAbsoluteDisplacementi
0803cd10 T _Z23I2C_Internal_Initializev
08032460 T _Z23radio_spi_sel_no_assertv
08060628 T _Z23setProcessingInProgressi
08033140 T _Z23si446x_get_current_rssiv
08033114 T _Z23si446x_get_latched_rssiv
08033764 T _Z23si446x_get_modem_statush
08032788 T _Z23si446x_hal_uninitializeh
08020318 T _Z23Solution_GetReleaseInfoR13MfReleaseInfo
08034d14 T _Z23Time_TimeSpanToStringExRKxRPcRj
08036794 T _Z23USART_AddCharToRxBufferic
08035600 T _Z23USART_InitializeManagediiiiii
08036b00 T _Z23Watchdog_GetSetBehavior17Watchdog_Behaviorj
0803b4cc T _Z24AD_GetCallbacksPerSecondv
08035324 W _Z24CPU_GetUncachableAddressIVjEPT_S2_
0803f770 T _Z24CPU_GetUncachableAddressj
0803c45c T _Z24CPU_GPIO_EnableInputPin2jjPFvjjPvES_13GPIO_INT_EDGE13GPIO_RESISTOR
0803c68c T _Z24CPU_GPIO_EnableOutputPinjj
08033944 T _Z24CPU_INTC_InterruptEnablej
0802a1f0 T _Z24CPU_Radio_PreloadMessagePht
0803d560 T _Z24CPU_SPI_nWrite16_nRead16RK17SPI_CONFIGURATIONPtiS2_ii
08034f38 T _Z24HAL_AddSoftRebootHandlerPFvvE
0803cb64 T _Z24I2C_Internal_XActionStopv
08049744 T _Z24Interop_Marshal_StoreRefR17CLR_RT_StackFramePvj
08062220 T _Z24ManagedSendAckCallbackFnPvt11NetOpStatush
08032ea0 T _Z24si446x_hal_set_RadioTypea
08033918 T _Z24SOCKETS_CloseConnectionsv
0803fe90 T _Z24TimeService_UnInitializev
08040c54 T _Z25CLR_RetrieveCurrentMethodRjS_
0803394c T _Z25CPU_INTC_InterruptDisablej
08029e1c T _Z25CPU_IsSoftRebootSupportedv
08029ff8 T _Z25CPU_Radio_GetRadioAckTypev
08027750 T _Z25csmaRadioInterruptHandler14RadioInterruptPv
08025510 T _Z25DebuggerPort_Uninitializei
08025684 T _Z25DebuggerPort_UpgradeToSslij
08030db0 T _Z25GenerateSoftwareInterruptv
0803bb48 T _Z25I2C_InitializeTransactionP15I2C_HAL_XACTIONR22I2C_USER_CONFIGURATIONPP20I2C_HAL_XACTION_UNITj
0803ca50 T _Z25I2C_Internal_GetClockRatejRhS_
0803cd94 T _Z25I2C_Internal_Uninitializev
0803cae4 T _Z25I2C_Internal_XActionStartP15I2C_HAL_XACTIONb
080286f8 T _Z25MFUpdate_EnumerateUpdatesPji
08062214 T _Z25NeighborChangedCallbackFns
0802ac20 T _Z25OMACRadioInterruptHandler14RadioInterruptPv
080333e8 T _Z25radio_comm_SendCmdGetResphPhhS_
08056be8 T _Z25SaveNativeEventToHALQueueP38CLR_RT_HeapBlock_NativeEventDispatcherjj
0803b194 T _Z26AD_ConfigureContinuousModePtjjPFvPvES0_
0803392c T _Z26CPU_INTC_ActivateInterruptjPFvPvES_
0802a1a4 T _Z26CPU_Radio_Send_TimeStampedhPvtj
0803ba74 T _Z26I2C_XActionUnit_CopyBufferP20I2C_HAL_XACTION_UNITPhj
08027ef0 T _Z26MAC_GetPacketSizeWithIndexPht
080289ac T _Z26MFUpdate_GetMissingPacketsjPjPi
080359b0 T _Z26USART_BytesInManagedBufferij
08036994 T _Z26VirtTimer_SetOrChangeTimerhjjjjPFvPvEh
08025710 T _Z27CPU_InitializeCommunicationv
0802a388 T _Z27CPU_Radio_SetDefaultRxStateh
08025664 T _Z27DebuggerPort_IsSslSupportedi
080278f4 T _Z27HAL_Time_GetDriftParametersPiS_Px
080278fc T _Z27HAL_Time_Sleep_MicroSecondsj
0803ba58 T _Z27I2C_XAction_TransactedBytesP15I2C_HAL_XACTION
08043804 T _Z27Interop_Marshal_float_ARRAYRK17CLR_RT_StackFramejR17CLR_RT_TypedArrayIfE
080437dc T _Z27Interop_Marshal_INT16_ARRAYRK17CLR_RT_StackFramejR17CLR_RT_TypedArrayIsE
080437f0 T _Z27Interop_Marshal_INT32_ARRAYRK17CLR_RT_StackFramejR17CLR_RT_TypedArrayIiE
0804378c T _Z27Interop_Marshal_UINT8_ARRAYRK17CLR_RT_StackFramejR17CLR_RT_TypedArrayIhE
080499c4 T _Z27Interop_Marshal_UINT8_ByRefRK17CLR_RT_StackFramePvjRPh
0805bcd4 T _Z27LargeBuffer_ManagedToNativetPKhj
0805bcd0 T _Z27LargeBuffer_NativeToManagedtPhj
08037f3c T _Z27PublicDataRxSendAckCallbackPv
080315b4 T _Z27PublicSchedulerTaskHandler1Pv
0803363c T _Z27si446x_request_device_statev
08036a64 T _Z27VirtTimer_SleepMicrosecondshj
0803393c T _Z28CPU_INTC_DeactivateInterruptj
08026b3c T _Z28CPU_Timer_Sleep_MicroSecondsjt
08027874 T _Z28HAL_Time_TicksToMicrosecondsy
08043818 T _Z28Interop_Marshal_double_ARRAYRK17CLR_RT_StackFramejR17CLR_RT_TypedArrayIdE
080437a0 T _Z28Interop_Marshal_UINT16_ARRAYRK17CLR_RT_StackFramejR17CLR_RT_TypedArrayItE
080437b4 T _Z28Interop_Marshal_UINT32_ARRAYRK17CLR_RT_StackFramejR17CLR_RT_TypedArrayIjE
080437c8 T _Z28Interop_Marshal_UINT64_ARRAYRK17CLR_RT_StackFramejR17CLR_RT_TypedArrayIyE
080282dc T _Z28MAC_EnqueueToSendTimeStampedthPvtj
080328f4 T _Z28si446x_hal_set_default_state10si_state_t
0803333c T _Z28si446x_start_rx_fast_channelh
080357bc T _Z28USART_RemoveCharFromTxBufferiRc
080257bc T _Z29CPU_UninitializeCommunicationv
0802a8d8 T _Z29CPU_USART_GetBaudrateBoundaryiRjS_
0802a8e4 T _Z29CPU_USART_IsBaudrateSupportediRj
0802a804 T _Z29CPU_USART_WriteCharToTxBufferih
0803bb14 T _Z29I2C_InitializeTransactionUnitP20I2C_HAL_XACTION_UNITPhS1_jj
08040920 t _Z29Interop_Marshal_NUMERIC_ARRAYIdEiRK17CLR_RT_StackFramejRPT_Rjj
080408e0 t _Z29Interop_Marshal_NUMERIC_ARRAYIfEiRK17CLR_RT_StackFramejRPT_Rjj
08040760 t _Z29Interop_Marshal_NUMERIC_ARRAYIhEiRK17CLR_RT_StackFramejRPT_Rjj
080408a0 t _Z29Interop_Marshal_NUMERIC_ARRAYIiEiRK17CLR_RT_StackFramejRPT_Rjj
080407e0 t _Z29Interop_Marshal_NUMERIC_ARRAYIjEiRK17CLR_RT_StackFramejRPT_Rjj
08040860 t _Z29Interop_Marshal_NUMERIC_ARRAYIsEiRK17CLR_RT_StackFramejRPT_Rjj
080407a0 t _Z29Interop_Marshal_NUMERIC_ARRAYItEiRK17CLR_RT_StackFramejRPT_Rjj
08040820 t _Z29Interop_Marshal_NUMERIC_ARRAYIyEiRK17CLR_RT_StackFramejRPT_Rjj
08030b34 T _Z29ISR_SoftwareInterrupt_HandlerPv
08036a0c T _Z29VirtTimer_TicksToMicrosecondshy
0803b4dc T _Z30AD_SetPeriodicSamplingIntervaldd
0803d318 T _Z30CPU_SPI_Xaction_nWrite8_nRead8R13SPI_XACTION_8
0802a7e0 T _Z30CPU_USART_TxShiftRegisterEmptyi
080285ec T _Z30MFUpdate_InitializeFromStoragev
08056bf0 T _Z31CleanupNativeEventsFromHALQueueP38CLR_RT_HeapBlock_NativeEventDispatcher
0802a2f0 T _Z31CPU_Radio_ClearChannelAssesmenth
0802a33c T _Z31CPU_Radio_ClearChannelAssesmenthj
0805bccc T _Z31LargeBuffer_GetNativeBufferSizet
0803b994 T _Z32AD_ConfigureBatchModeDualChannelPtS_jjPFvPvES0_
0803d1f8 T _Z32CPU_SPI_Xaction_nWrite16_nRead16R14SPI_XACTION_16
0803fe98 T _Z32HAL_CONTINUATION_ExtendedExecutePv
08027da8 T _Z33MAC_DeletePacketWithIndexInternalt
0803c764 T _Z34CPU_GPIO_GetSupportedResistorModesj
08027e38 T _Z34MAC_ChangeOwnerShipOfElementwIndext11BufferOwner
080317ac T _Z34PublicSchedulerTaskHandlerFailsafePv
0803314c T _Z34si446x_request_device_state_shadowv
0803add4 T _Z35AD_GetAvailablePrecisionsForChannel14ANALOG_CHANNELPiRj
0803c768 T _Z35CPU_GPIO_GetSupportedInterruptModesj
0805bcc4 T _Z35DA_GetAvailablePrecisionsForChannel10DA_CHANNELPiRj
080314d0 T _Z35PublicSchedulerTaskHandlerRadioStopPv
0802a8d4 T _Z36CPU_USART_SupportNonStandardBaudRatei
0803b674 T _Z37AD_ConfigureContinuousModeDualChannelPtS_jjPFvPvES0_
0802a8a8 T _Z37CPU_USART_RxBufferFullInterruptEnableij
0802a88c T _Z37CPU_USART_TxBufferEmptyInterruptStatei
0804382c T _Z37Interop_Marshal_RetrieveManagedObjectR17CLR_RT_StackFrame
0805cbd0 T _Z37NativeToManagedUpdaterProgressHandlerjtht
0802a820 T _Z38CPU_USART_TxBufferEmptyInterruptEnableij
080278e0 T _Z44HAL_Time_SetCompare_Sleep_Clock_MicroSecondsj
08027910 T _Z44HAL_Time_Sleep_MicroSeconds_InterruptEnabledj
08029920 T _Z4Haltv
08029928 T _Z5Resetv
08029bf4 T _Z5Sleepv
080676d4 T _Z6mmlessP11HeapTrack_tii
08029918 T _Z6Snoozev
0803ad94 T _Z7AD_Read14ANALOG_CHANNEL
08029e0c T _Z8CPU_Haltv
0805bca0 T _Z8DA_Write10DA_CHANNELi
0805fedc T _Z8getRangei
08028e74 T _Z8ISR_TIM1Pv
08029104 T _Z8ISR_TIM2Pv
08028250 T _Z8MAC_SendthPvt
08057b70 T _Z8run_testv
08029948 T _Z8Shutdownv
080367b4 T _Z8USB_ReadiPcj
080296f0 T _Z8WakeLockm
08020344 T _Z9ClrRebootv
08029e14 T _Z9CPU_Resetv
08029dec T _Z9CPU_Sleep11SLEEP_LEVELy
0802978c T _Z9Low_Powerv
080281e8 T _Z9MAC_GetIDv
0806780c T _Z9maxSortUpP11HeapTrack_ti
080297f4 T _Z9Mid_Powerv
080677d4 T _Z9minSortUpP11HeapTrack_ti
0806772c T _Z9mmCmpExchP11HeapTrack_tii
0805763c T _Z9mulMatVecPxS_iiS_
08029b94 T _Z9PowerInitv
08030d8c T _Z9RT_Changejj
080367b8 T _Z9USB_Flushi
080367b0 T _Z9USB_WriteiPKcj
20007be0 b _ZGVZN10Data_Store11searchForIDEjE17prevBlockSearched
200034ec b _ZGVZN8OMACType14ReceiveHandlerEP23IEEE802_15_4_Message_t2iE2pt
200076b8 b _ZL10absOffsetI
200076c6 b _ZL10absOffsetQ
0807120c t _ZL10c_CRCTable
08020a44 t _ZL10FillValuesP16CLR_RT_HeapBlockRPN16CLR_DBG_Commands15Debugging_ValueEjS0_P23CLR_RT_TypeDef_Instance
20004250 b _ZL10g_UserData
20007b90 b _ZL10lastUnwrap
20007b88 b _ZL10medianRawQ
20004460 b _ZL10modem_pend
08031894 t _ZL10print_lock15radio_lock_id_t
20004384 b _ZL10radio_lock
2000134c d _ZL10realTimeID
080322b0 t _ZL10rx_cont_doPv
2000437c b _ZL10rx_msg_ptr
08032124 t _ZL10tx_cont_doPv
200042f0 b _ZL10tx_msg_ptr
08033078 t _ZL11blank_debugiPKcz
20004461 b _ZL11chip_status
20007b94 b _ZL11codeVersion
20004430 b _ZL11ctsWentHigh
20004436 b _ZL11freq_offset
200052d8 b _ZL11g_timeStamp
08059668 t _ZL11GetTypeSize12CLR_DataType
0803c150 t _ZL11handle_extij
20007b58 b _ZL11initialized
0803228c t _ZL11int_cont_doPv
0803c26c t _ZL11IsOutputPinj
20007b64 b _ZL11mOfnCounter
08033080 t _ZL11radio_errorv
20004388 b _ZL11rx_callback
08029660 t _ZL11Sleep_Powerv
200042ec b _ZL11tx_callback
08029568 t _ZL12align_to_rtcv
08089094 t _ZL12c_Update_app
080890a0 t _ZL12c_Update_phy
080319c0 t _ZL12convert_rssih
20004463 b _ZL12current_rssi
20007658 b _ZL12g_sdUserData
0803196c t _ZL12GetCPUSerialPhj
08034f24 t _ZL12InitCRuntimev
20004434 b _ZL12latched_rssi
20004465 b _ZL12modem_status
20007b30 b _ZL12mOfnDetector
08020248 t _ZL12Prepare_CopyPjS_j
08020278 t _ZL12Prepare_ZeroPjj
0807aa58 t _ZL12qFC_Weight_l
08080828 t _ZL12qFC_Weight_u
0807a458 t _ZL12qU1_transp_l
08080c28 t _ZL12qU1_transp_u
0807ad98 t _ZL12qU2_transp_l
0807e828 t _ZL12qU2_transp_u
0807ac58 t _ZL12qW1_transp_l
08082c28 t _ZL12qW1_transp_u
0807b498 t _ZL12qW2_transp_l
08084a28 t _ZL12qW2_transp_u
200043a8 b _ZL12rx_timestamp
20007b8c b _ZL12unwrapMedian
20007734 b _ZL12unwrapSigned
08029554 t _ZL13align_to_rtc2v
08020c64 t _ZL13Assign_HelperP16CLR_RT_HeapBlockS0_
0807a298 t _ZL13c_WhiteSpaces
08058658 t _ZL13ComputeSinCosR17CLR_RT_StackFrameb
20004464 b _ZL13current_state
20007650 b _ZL13g_adcUserData
20007b74 b _ZL13lastUnwrapMax
08088ab8 t _ZL13method_lookup
08088fa0 t _ZL13method_lookup
0808869c t _ZL13method_lookup
08088e1c t _ZL13method_lookup
08088b54 t _ZL13method_lookup
08087e28 t _ZL13method_lookup
0807a32c t _ZL13method_lookup
08088098 t _ZL13method_lookup
08071b20 t _ZL13method_lookup
08088514 t _ZL13method_lookup
080793dc t _ZL13method_lookup
08088030 t _ZL13method_lookup
20001a70 b _ZL13s_ClrSettings
20001a78 b _ZL13s_missingPkts
0807ba28 t _ZL13test_inputs_l
08029598 t _ZL14do_hsi_measurev
08031af4 t _ZL14get_APB1_clockv
08031b08 t _ZL14get_APB2_clockv
080317f0 t _ZL14get_lock_innerPVmm
0803c0e8 t _ZL14GPIO_GetExtrCRj
20007b5c b _ZL14lastUnwrapZero
0805bbd8 t _ZL14PostUsartEventPvj
20007b4c b _ZL14radarNoiseCtrl
0802093c t _ZL14SetBlockHelperP16CLR_RT_HeapBlock12CLR_DataTypePh
20004290 b _ZL14si446x_channel
080330c0 t _ZL14spi_read_bytesjPh
08070a44 t _ZL15c_Messaging_app
08070a50 t _ZL15c_Messaging_phy
0805ebf0 t _ZL15CleanupSDDriverP38CLR_RT_HeapBlock_NativeEventDispatcher
20007698 b _ZL15countOverTarget
200015cc d _ZL15defaultProperty
20004468 b _ZL15LoggingCallback
08029500 t _ZL15RTC_wakeup_initv
080599dc t _ZL15SerializeObjectP16CLR_RT_HeapBlockPhRiS2_
08032004 t _ZL15si446x_leave_rx15radio_lock_id_t
0803184c t _ZL15si446x_spi_lock15radio_lock_id_t
080330a8 t _ZL15spi_write_bytesjPKh
20003458 b _ZL15stm_power_state
20007b70 b _ZL15unwrapMedianMax
200042f4 b _ZL16active_mac_index
0805e470 t _ZL16CleanupADCDriverP38CLR_RT_HeapBlock_NativeEventDispatcher
0805a0ac t _ZL16CleanupEventSinkP38CLR_RT_HeapBlock_NativeEventDispatcher
20004260 b _ZL16debuggerAttached
0802a630 t _ZL16do_com0_attachedjjPv
200056c0 b _ZL16g_s_FirstCluster
08031a70 t _ZL16init_si446x_pinsv
200015bc d _ZL16IQRejectionToUse
08020a08 t _ZL16IsBlockEnumMaybeP16CLR_RT_HeapBlock
200054b0 b _ZL16pin_reservations
20004264 b _ZL16realtimeTimerCnt
08033994 t _ZL16reset_all_timersv
20004490 b _ZL16s_rebootHandlers
08071724 t _ZL16s_UpdatePackages
200042b4 b _ZL16SI446X_pin_setup
200015c0 d _ZL16targetSizeFilter
20007b28 b _ZL16unwrapMedianZero
200049b8 b _ZL16use_com0_managed
08079324 t _ZL17c_ExceptionLookup
080755a8 t _ZL17c_TypeIndexLookup
080294e8 t _ZL17check_pending_isrv
0805e098 t _ZL17CleanuRadarDriverP38CLR_RT_HeapBlock_NativeEventDispatcher
08059b38 t _ZL17DeserializeObjectP16CLR_RT_HeapBlockPhRii
20007b84 b _ZL17detectionFinished
2000774c b _ZL17detectionFinished
08030a70 t _ZL17EnqueueEventToCLRP38CLR_RT_HeapBlock_NativeEventDispatcher
0803c260 t _ZL17EXTI0_IRQ_HANDLERPv
0803c240 t _ZL17EXTI1_IRQ_HANDLERPv
0803c234 t _ZL17EXTI2_IRQ_HANDLERPv
0803c228 t _ZL17EXTI3_IRQ_HANDLERPv
0803c21c t _ZL17EXTI4_IRQ_HANDLERPv
08021d08 t _ZL17GetClrReleaseInfoRN16CLR_DBG_Commands40Debugging_Execution_QueryCLRCapabilities7ClrInfoE
08028598 t _ZL17GetProviderByNamePKc
08029658 t _ZL17pause_peripheralsv
200034c4 b _ZL17PORTS_IN_USE_MASK
20004274 b _ZL17radio_si446x_spi2
08033a6c t _ZL17RCC_Configurationv
08031b40 t _ZL17si446x_pkt_rx_intv
08031b60 t _ZL17si446x_pkt_tx_intv
08031870 t _ZL17si446x_radio_lock15radio_lock_id_t
08031860 t _ZL17si446x_spi_unlockv
200015c4 d _ZL18adjustmentIQPeriod
20007b20 b _ZL18callbacksPerSecond
200052a8 b _ZL18callbacksPerSecond
0805bcfc t _ZL18Cleanup_Net_DriverP38CLR_RT_HeapBlock_NativeEventDispatcher
08028cf0 t _ZL18GetNewUpdateHandlePP8MFUpdateP14MFUpdateHeader
0805ebd0 t _ZL18InitializeSDDriverP38CLR_RT_HeapBlock_NativeEventDispatchery
080470a8 t _ZL18local_FindFieldDefP15CLR_RT_AssemblyjjPKcS0_tR21CLR_RT_FieldDef_Index
20007738 b _ZL18maxCountOverTarget
200076c8 b _ZL18radarGarbagePurged
2000581c b _ZL18s_PreHeapInitIndex
20004438 b _ZL18si446x_debug_print
08031b1c t _ZL18si446x_debug_printiPKcz
200076a4 b _ZL19absoluteDisplEntire
20001434 d _ZL19adcPeriodicOnTimeUs
08073fb0 t _ZL19c_MethodIndexLookup
200076f0 b _ZL19continueToSendCount
0803c1f4 t _ZL19EXTI9_5_IRQ_HANDLERPv
0805e418 t _ZL19InitializeADCDriverP38CLR_RT_HeapBlock_NativeEventDispatchery
08059c44 t _ZL19InitializeEventSinkP38CLR_RT_HeapBlock_NativeEventDispatchery
080287b8 t _ZL19ReleaseUpdateHandlej
08031884 t _ZL19si446x_radio_unlockv
20007b60 b _ZL19windowOverThreshold
200076ec b _ZL19windowOverThreshold
08072d88 t _ZL19wwf2_serial_numbers
20007b78 b _ZL1M
20001430 d _ZL20adcPeriodicOffTimeUs
200076e0 b _ZL20alertInterruptActive
08020b74 t _ZL20AnalyzeObject_HelperP16CLR_RT_HeapBlockR13AnalyzeObject
080755a0 t _ZL20c_MARKER_ASSEMBLY_V1
0804613c t _ZL20FixReflectionForTypeRK16CLR_RT_HeapBlockRS_
08020c28 t _ZL20GetScratchPad_Helperi
200015b8 d _ZL20initialAdjustmentCnt
0802f164 t _ZL20interrupt_mode_checkv
0805963c t _ZL20MarshalStorageHeaderP16CLR_RT_HeapBlockR14MFUpdateHeader
20007b80 b _ZL20prevIQrejectionValue
200076cc b _ZL20processingInProgress
200033e8 b _ZL20s_updatesInitialized
200034a0 b _ZL20USART1_InitStructure
200034b0 b _ZL20USART2_InitStructure
0805bb40 t _ZL21CleanupUsartErrorSinkP38CLR_RT_HeapBlock_NativeEventDispatcher
08040650 t _ZL21CompareValues_NumericRK16CLR_RT_HeapBlockS1_bi
08040608 t _ZL21CompareValues_Numericxx
08040630 t _ZL21CompareValues_Numericyy
20007748 b _ZL21displacementFirstHalf
200076bc b _ZL21displacementFirstHalf
08071b60 t _ZL21dotnow_serial_numbers
0805ebec t _ZL21EnableDisableSDDriverP38CLR_RT_HeapBlock_NativeEventDispatcherb
0803c1c0 t _ZL21EXTI15_10_IRQ_HandlerPv
0805bcdc t _ZL21Initialize_Net_DriverP38CLR_RT_HeapBlock_NativeEventDispatchery
0805e078 t _ZL21InitializeRadarDriverP38CLR_RT_HeapBlock_NativeEventDispatchery
200076f8 b _ZL21maxDisplacementEntire
20007668 b _ZL21maxDisplacementEntire
200076e4 b _ZL21minDisplacementEntire
20007684 b _ZL21minDisplacementEntire
20003454 b _ZL21pwr_hsi_clock_measure
200076a8 b _ZL22absoluteDisplFirstHalf
08075a04 t _ZL22c_CLR_StringTable_Data
08031ca8 t _ZL22choose_hardware_configiP18SI446X_pin_setup_t
200015b4 d _ZL22classifierTargetFilter
20007700 b _ZL22displacementSecondHalf
200076a0 b _ZL22displacementSecondHalf
0805e434 t _ZL22EnableDisableADCDriverP38CLR_RT_HeapBlock_NativeEventDispatcherb
08059c54 t _ZL22EnableDisableEventSinkP38CLR_RT_HeapBlock_NativeEventDispatcherb
20004270 b _ZL22g_RealTimeTimerEnabled
2000438c b _ZL22int_defer_continuation
08028530 t _ZL22MFUpdate_RebootHandlerv
0805970c t _ZL22SerializeIntrinsicType12CLR_DataTypePhS0_RiS1_
08031b80 t _ZL22si446x_pkt_bad_crc_intv
2000767c b _ZL23absoluteDisplSecondHalf
080735cc t _ZL23CummulativeDaysForMonth
20004484 b _ZL23g_Boot_RAMConstants_CRC
0805a3b0 t _ZL23HWPORT_GPIO_CheckPortIdbj
2000141e d _ZL24adcPeriodicOnTimeRunning
08073624 t _ZL24c_CLR_StringTable_Lookup
08070a2c t _ZL24c_Messaging_Lookup_Reply
08059698 t _ZL24DeserializeIntrinsicTypeP16CLR_RT_HeapBlockPhRii
0805bcf8 t _ZL24EnableDisable_Net_DriverP38CLR_RT_HeapBlock_NativeEventDispatcherb
0805e094 t _ZL24EnableDisableRadarDriverP38CLR_RT_HeapBlock_NativeEventDispatcherb
2000764c b _ZL24g_ADC_Driver_Initialized
08071648 t _ZL24g_HardwareTimerFrequency
08088f88 t _ZL24g_SDInteropDriverMethods
08087a28 t _ZL24I_squared_times_nu_u_vec
0805bba4 t _ZL24InitializeUsartErrorSinkP38CLR_RT_HeapBlock_NativeEventDispatchery
200076e8 b _ZL24maxDisplacementFirstHalf
2000768c b _ZL24maxDisplacementFirstHalf
2000773c b _ZL24minDisplacementFirstHalf
200076b4 b _ZL24minDisplacementFirstHalf
20004294 b _ZL24rx_callback_continuation
08031a0c t _ZL24si446x_radio_lock_nofail15radio_lock_id_t
200042a4 b _ZL24tx_callback_continuation
0805baa8 t _ZL25CleanupUsartDataEventSinkP38CLR_RT_HeapBlock_NativeEventDispatcher
08088f64 t _ZL25g_AdcInteropDriverMethods
20007740 b _ZL25interruptServiceInProcess
2000769c b _ZL25maxDisplacementSecondHalf
200076fc b _ZL25maxDisplacementSecondHalf
20007750 b _ZL25minDisplacementSecondHalf
200076c0 b _ZL25minDisplacementSecondHalf
200076d0 b _ZL25radarHandler_continuation
08070a60 t _ZL26c_Messaging_Lookup_Request
08030a3c t _ZL26CleanupRealTimeTimerDriverP38CLR_RT_HeapBlock_NativeEventDispatcher
08027800 t _ZL26DebuggerPort_SSL_GetCACertPPhPj
2000344c b _ZL26pwr_hsi_clock_measure_orig
200076ac b _ZL26unwrappedPhaseCrossProduct
0805bb6c t _ZL27EnableDisableUsartErrorSinkP38CLR_RT_HeapBlock_NativeEventDispatcherb
08088690 t _ZL27g_CLR_MAC_MAC_DriverMethods
08088df4 t _ZL27g_RadarInteropDriverMethods
200056f4 b _ZL27vtCallbackContinuationArray
0805cc0c t _ZL28Cleanup_UpdateManager_DriverP38CLR_RT_HeapBlock_NativeEventDispatcher
08088a7c t _ZL28g_CLR_CSMA_MAC_DriverMethods
08088aa0 t _ZL28g_CLR_OMAC_MAC_DriverMethods
0805bb0c t _ZL28InitializeUsartDataEventSinkP38CLR_RT_HeapBlock_NativeEventDispatchery
08032178 t _ZL28si446x_spi2_handle_interruptjjPv
08028540 t _ZL29CalculateTotalNumberOfPacketsP8MFUpdate
08030c54 t _ZL29InitializeRealTimeTimerDriverP38CLR_RT_HeapBlock_NativeEventDispatchery
20007b68 b _ZL29noiseRejectionPassedParameter
20007670 b _ZL29unwrappedPhaseCrossProductMax
08027814 t _ZL30DebuggerPort_SSL_GetDeviceCertPPhPj
0802780c t _ZL30DebuggerPort_SSL_GetTargetHostPPKc
08021084 t _ZL30Debugging_Thread_Create_HelperR22CLR_RT_MethodDef_IndexRP13CLR_RT_Threadj
0804098c t _ZL30LookUpAssemblyNativeDataByNamePPK25CLR_RT_NativeAssemblyDataPKc
2000766c b _ZL30unwrappedPhaseCrossProductZero
0805bad4 t _ZL31EnableDisableUsartDataEventSinkP38CLR_RT_HeapBlock_NativeEventDispatcherb
0805cb88 t _ZL31Initialize_UpdateManager_DriverP38CLR_RT_HeapBlock_NativeEventDispatchery
08030d74 t _ZL32EnableDisableRealTimeTimerDriverP38CLR_RT_HeapBlock_NativeEventDispatcherb
080319c8 t _ZL32si446x_radio_lock_if_then_nofail15radio_lock_id_tS_
08028560 t _ZL33CalculateMissingPktsWordfieldSizeP8MFUpdate
08088b10 t _ZL33g_CLR_UpdateManager_DriverMethods
0805cbc0 t _ZL34EnableDisable_UpdateManager_DriverP38CLR_RT_HeapBlock_NativeEventDispatcherb
0808866c t _ZL34g_CLR_Radio_802_15_4_DriverMethods
08027938 t _ZL34local_Events_SetBoolTimer_CallbackPv
08073344 t _ZL34STM32F10x_BlockRange_InternalFlash
08071b14 t _ZL35g_InteropRealTimeTimerDriverMethods
0805a7cc t _ZL38Microsoft_SPOT_Hardware_Port_ConstructP16CLR_RT_HeapBlockjb13GPIO_RESISTOR13GPIO_INT_EDGEbb
08073380 t _ZL38STM32F10x_BlockRange_ExternalFlash_NOR
08073330 t _ZL39STM32F10x_BlockRegionInfo_InternalFlash
0807338c t _ZL43STM32F10x_BlockRegionInfo_ExternalFlash_NOR
0808808c t _ZL45g_CLR_AssemblyNative_Microsoft_SPOT_EventSink
0805a65c t _ZL53Microsoft_SPOT_Hardware_InterruptPort_EnableInterruptP16CLR_RT_HeapBlockP38CLR_RT_HeapBlock_NativeEventDispatcher
0805a6b0 t _ZL54Microsoft_SPOT_Hardware_InterruptPort_DisableInterruptP16CLR_RT_HeapBlockP38CLR_RT_HeapBlock_NativeEventDispatcher
08088654 t _ZL59g_CLR_AssemblyNative_Microsoft_SPOT_Hardware_UsartErrorSink
0808863c t _ZL59g_CLR_AssemblyNative_Microsoft_SPOT_Hardware_UsartEventSink
200076b0 b _ZL5prevI
20007674 b _ZL5prevQ
20007ba0 b _ZL6dataID
20004380 b _ZL6isInit
0807b9e8 t _ZL6mean_l
08087d28 t _ZL6mean_u
0807b398 t _ZL6qB_g_l
08084828 t _ZL6qB_g_u
0807e728 t _ZL6qB_h_l
08084628 t _ZL6qB_h_u
20007b7c b _ZL6radarI
20007b54 b _ZL6radarQ
200042f8 b _ZL6rx_msg
200043b0 b _ZL6tx_msg
080317e0 t _ZL7___LOADPVm
200015dc d _ZL7cluster
0807a358 t _ZL7I_l_vec
08084428 t _ZL7I_u_vec
200015c2 d _ZL7medianQ
2000444d b _ZL7ph_pend
20004450 b _ZL7Pro2Cmd
0807b9a8 t _ZL7stdev_l
08087c28 t _ZL7stdev_u
080317e8 t _ZL8___STOREmPVm
08031bec t _ZL8am_i_wwfv
20007b2c b _ZL8debugVal
0803181c t _ZL8get_lockPVmm
200054c0 b _ZL8gpio_isr
20007b50 b _ZL8IDNumber
08031e80 t _ZL8initSPI2v
20007694 b _ZL8prevIMax
20007678 b _ZL8prevQMax
2000439c b _ZL8spi_lock
20004378 b _ZL8tx_power
200050c0 b _ZL8waitTime
20003448 b _ZL8wakelock
20003460 b _ZL8waketime
20004462 b _ZL9chip_pend
08031a3c t _ZL9cont_busyv
0803183c t _ZL9free_lockPVm
200075f8 b _ZL9g_Context
20004268 b _ZL9g_Context
200052f0 b _ZL9gpio_parm
0802a554 t _ZL9init_com0v
0802a8fc t _ZL9init_com1iiiii
2000444c b _ZL9ph_status
20007688 b _ZL9prevIZero
20007680 b _ZL9prevQZero
200043a0 b _ZL9radioType
08033084 t _ZL9SI_ASSERTiPKc
2000443c b _ZL9Si446xCmd
20007b98 b _ZL9threshold
080295fc t _ZL9trim_testPmS_m
08040aec T _ZN10CLR_Checks20VerifyArrayReferenceER16CLR_RT_HeapBlock
08040b14 T _ZN10CLR_Checks24VerifyUnknownInstructionE10CLR_OPCODE
08040b1c T _ZN10CLR_Checks28VerifyUnsupportedInstructionE10CLR_OPCODE
080664cc T _ZN10Data_Store10compactLogEv
08066f90 T _ZN10Data_Store10getAddressEj
20007bec B _ZN10Data_Store10startCountE
08067174 T _ZN10Data_Store11DataStoreGCEv
080663cc T _ZN10Data_Store11getDataTypeEj
08066a20 T _ZN10Data_Store11readRawDataEPvS0_jj
08066dc8 T _ZN10Data_Store11searchForIDEj
080669e8 T _ZN10Data_Store12createRecordEjjj
08066bcc T _ZN10Data_Store12deleteRecordEj
08066bc8 T _ZN10Data_Store12getLastErrorEv
08066938 T _ZN10Data_Store12readPointersEv
08066aa8 T _ZN10Data_Store12writeRawDataEPvS0_jj
080671cc T _ZN10Data_Store13initDataStoreEPcP21_datastore_propertiesb
080662f4 T _ZN10Data_Store14cyclicDataReadEPvS0_j
0806717c T _ZN10Data_Store14EraseAllBlocksEv
080672dc T _ZN10Data_Store14returnLogPointEv
08066404 T _ZN10Data_Store15cyclicDataWriteEPvS0_j
08066230 T _ZN10Data_Store15detectOverWriteEPvS0_iPj
080672d4 T _ZN10Data_Store15returnFreeSpaceEv
08066fc4 T _ZN10Data_Store15scanFlashDeviceEv
08066874 T _ZN10Data_Store15traversePointerE22_persistence_directionPc
0806664c T _ZN10Data_Store16createAllocationEjPvjj
080661ac T _ZN10Data_Store16incrementPointerEPvi
080672c4 T _ZN10Data_Store16returnTotalSpaceEv
080661dc T _ZN10Data_Store17calculateNumBytesEPvS0_
08066254 T _ZN10Data_Store17getAllocationSizeEj
08066260 T _ZN10Data_Store17getRecentRecordIDEv
080672bc T _ZN10Data_Store17maxAllocationSizeEv
08066c3c T _ZN10Data_Store17readRecordinBlockEiiiPb
08066370 T _ZN10Data_Store18objectCountInBlockEi
080669e0 T _ZN10Data_Store19getCountOfRecordIdsEv
08066180 T _ZN10Data_Store19incrementClearPointEj
08066154 T _ZN10Data_Store19incrementErasePointEj
08066128 T _ZN10Data_Store19incrementLogPointerEj
08066214 T _ZN10Data_Store20calculateLogHeadRoomEv
0806628c T _ZN10Data_Store21createDummyAllocationEi
080669c8 T _ZN10Data_Store22decideWhichOneisRecentE14_record_headerS0_
08067024 T _ZN10Data_Store27getRecordIDAfterPersistenceEPjtt
08067230 T _ZN10Data_Store4initEb
20007be8 B _ZN10Data_Store8endCountE
08067140 T _ZN10Data_Store9DeleteAllEv
08027d0c T _ZN10GlobalTime18Local2NeighborTimeEtRKy
08027c60 T _ZN10GlobalTime18Neighbor2LocalTimeEtRKy
08027b08 T _ZN10GlobalTime4InitEv
20001334 D _ZN10GlobalTime6leaderE
200040c0 B _ZN10GlobalTime6offsetE
0803bb7c T _ZN10I2C_Driver10InitializeEv
0803bbc8 T _ZN10I2C_Driver12UninitializeEv
0803bca8 T _ZN10I2C_Driver17CompletedCallbackEPv
0803bc50 T _ZN10I2C_Driver6CancelEP15I2C_HAL_XACTIONb
0803bcdc T _ZN10I2C_Driver7EnqueueEP15I2C_HAL_XACTION
0803bc30 T _ZN10I2C_Driver9StartNextEv
08027c68 T _ZN10Regression18Local2NeighborTimeEtRKy
08027bb8 T _ZN10Regression18Neighbor2LocalTimeEtRKy
0803011c T _ZN10RF231Radio10InitializeEP17RadioEventHandlerhh
0802fc1c T _ZN10RF231Radio10SendStrobeEt
0802f55c T _ZN10RF231Radio12AntDiversityEj
08030610 T _ZN10RF231Radio12CheckForRSSIEv
0802f4c8 T _ZN10RF231Radio12ReadRegisterEh
0802f3a4 T _ZN10RF231Radio12UnInitializeEv
0802fe18 T _ZN10RF231Radio13ChangeChannelEi
0802fd6c T _ZN10RF231Radio13ChangeTxPowerEi
0802f328 T _ZN10RF231Radio13SpiInitializeEv
0802f210 T _ZN10RF231Radio13WriteRegisterEhh
08030688 T _ZN10RF231Radio15DownloadMessageEv
08030754 T _ZN10RF231Radio15HandleInterruptEv
0802f37c T _ZN10RF231Radio15SpiUnInitializeEv
0802f9a0 T _ZN10RF231Radio16Send_TimeStampedEPvtj
0802f268 T _ZN10RF231Radio17GpioPinInitializeEv
0802f1e8 T _ZN10RF231Radio17Interrupt_PendingEv
0802f2d4 T _ZN10RF231Radio19GpioPinUnInitializeEv
0802f6d4 T _ZN10RF231Radio20Careful_State_ChangeE20radio_hal_trx_status
0802f7d4 T _ZN10RF231Radio20Careful_State_ChangeEm
0803043c T _ZN10RF231Radio21ClearChannelAssesmentEj
08030624 T _ZN10RF231Radio21ClearChannelAssesmentEv
0803053c T _ZN10RF231Radio26GetAverageOrMaxRSSI_countNEh
0802f7e0 T _ZN10RF231Radio29Careful_State_Change_ExtendedE20radio_hal_trx_status
0802f994 T _ZN10RF231Radio29Careful_State_Change_ExtendedEm
0802f200 T _ZN10RF231Radio3AmpEj
0802fec8 T _ZN10RF231Radio4SendEPvt
0802fb00 T _ZN10RF231Radio5SleepEi
0802f58c T _ZN10RF231Radio6PARXTXEj
0802f5bc T _ZN10RF231Radio6WakeupEv
0802f514 T _ZN10RF231Radio7PreloadEP23IEEE802_15_4_Message_t2t
0802f1c8 T _ZN10RF231Radio8Send_AckEPvt11NetOpStatush
0803001c T _ZN10RF231Radio8TurnOnRxEv
080300a4 T _ZN10RF231Radio9TurnOffRxEv
0803f808 T _ZN10TimeDriver10GetUtcTimeEv
0803f774 T _ZN10TimeDriver10InitializeEv
0803f830 T _ZN10TimeDriver10SetUtcTimeExb
0803fc3c T _ZN10TimeDriver11DaysInMonthEiiPi
0803fd28 T _ZN10TimeDriver11SafeSprintfERPcRjPKcz
0803f81c T _ZN10TimeDriver12GetLocalTimeEv
0803fcf8 T _ZN10TimeDriver12SafeSprintfVERPcRjPKcSt9__va_list
0803f850 T _ZN10TimeDriver12ToSystemTimeExP10SYSTEMTIME
0803f7c8 T _ZN10TimeDriver12UninitializeEv
200056f0 B _ZN10TimeDriver13m_initializedE
0803fbd8 T _ZN10TimeDriver14AccDaysInMonthEiiPi
0803fa7c T _ZN10TimeDriver14FromSystemTimeEPK10SYSTEMTIME
0803f800 T _ZN10TimeDriver14GetMachineTimeEv
0803fd48 T _ZN10TimeDriver16TimeSpanToStringERKxRPcRj
0803f7e4 T _ZN10TimeDriver17GetTimeZoneOffsetEv
080245e4 T _ZN10WP_Message10InitializeEP13WP_Controller
08024668 T _ZN10WP_Message12PrepareReplyERK9WP_PacketjjPh
080246ec T _ZN10WP_Message12VerifyHeaderEv
0802470c T _ZN10WP_Message13VerifyPayloadEv
08024610 T _ZN10WP_Message14PrepareRequestEjjjPh
08024770 T _ZN10WP_Message14ReplyBadPacketEj
08024608 T _ZN10WP_Message16PrepareReceptionEv
080247a0 T _ZN10WP_Message7ProcessEv
080246d0 T _ZN10WP_Message7ReleaseEv
08023e3c T _ZN11CLR_RT_DUMP15GETERRORMESSAGEEi
08023df0 T _ZN11CLR_RT_DUMP22POST_PROCESS_EXCEPTIONER16CLR_RT_HeapBlock
08023d7c T _ZN11CLR_RT_DUMP4TYPEERK20CLR_RT_TypeDef_Index
08023db8 T _ZN11CLR_RT_DUMP6METHODERK22CLR_RT_MethodDef_Index
0802428c T _ZN11CLR_RT_DUMP9EXCEPTIONER17CLR_RT_StackFrameR16CLR_RT_HeapBlock
08060814 T _ZN11SDIO_Driver10EraseBlockEjj
080607ac T _ZN11SDIO_Driver10InitializeEPFv12DeviceStatusE
0806082c T _ZN11SDIO_Driver10WriteBlockEPhjt
08060650 T _ZN11SDIO_Driver12SDIO_HANDLEREPv
080607a0 T _ZN11SDIO_Driver14DMAClockEnableEv
08060720 T _ZN11SDIO_Driver15GPIOClockEnableEv
08060790 T _ZN11SDIO_Driver15SDIOClockEnableEv
0806072c T _ZN11SDIO_Driver8GPIOInitEv
08060844 T _ZN11SDIO_Driver9ReadBlockEPhjt
0803a850 T _ZN11Time_Driver10InitializeEv
0803aaf8 T _ZN11Time_Driver10Sleep_uSecEj
0803aa2c T _ZN11Time_Driver11CurrentTimeEv
0803aa14 T _ZN11Time_Driver11TicksToTimeEy
0803ab04 T _ZN11Time_Driver12AddClockTimeEy
0803a940 T _ZN11Time_Driver12CurrentTicksEv
0803a8f8 T _ZN11Time_Driver12UninitializeEv
0803a960 T _ZN11Time_Driver15SetCompareValueEy
0803aa20 T _ZN11Time_Driver19TicksToMicrosecondsEy
0803a9cc T _ZN11Time_Driver37SetCompareValueSleepClockMicroSecondsEj
0803a94c T _ZN11Time_Driver9StopTimerEv
08056558 T _ZN12CLR_GFX_Font14CreateInstanceER16CLR_RT_HeapBlockPKhP15CLR_RT_Assembly
0802df98 T _ZN12OMACTimeSync10InitializeEhh
0802e000 T _ZN12OMACTimeSync12ExecuteEventEv
0802e018 T _ZN12OMACTimeSync12FailsafeStopEv
0802e230 T _ZN12OMACTimeSync12ReceiveTSReqEtP18TimeSyncRequestMsg
0802e240 T _ZN12OMACTimeSync13CreateMessageEP11TimeSyncMsgyb
0802dfe0 T _ZN12OMACTimeSync16PostExecuteEventEv
0802e024 T _ZN12OMACTimeSync4SendEt
0802e248 T _ZN12OMACTimeSync7ReceiveEtP11TimeSyncMsgyy
0802e10c T _ZN12OMACTimeSync9NextEventEv
080338ac T _ZN12SmartPtr_IRQ12ForceEnabledEPv
080338a4 T _ZN12SmartPtr_IRQ13ForceDisabledEPv
08033878 T _ZN12SmartPtr_IRQ5ProbeEv
080338d4 T _ZN12SmartPtr_IRQ7AcquireEv
080338b4 T _ZN12SmartPtr_IRQ7DisableEv
08033860 T _ZN12SmartPtr_IRQ7ReleaseEv
080338e4 T _ZN12SmartPtr_IRQ7RestoreEv
08033890 T _ZN12SmartPtr_IRQ8GetStateEPv
080338c4 T _ZN12SmartPtr_IRQC1EPv
080338c4 T _ZN12SmartPtr_IRQC2EPv
080338f0 T _ZN12SmartPtr_IRQD1Ev
080338f0 T _ZN12SmartPtr_IRQD2Ev
08035498 T _ZN12USART_Driver10InitializeEiiiiii
08036424 T _ZN12USART_Driver11ManagedReadEiPcj
08035650 T _ZN12USART_Driver12UninitializeEi
08035f68 T _ZN12USART_Driver13AddToRxBufferEiPcj
080358d0 T _ZN12USART_Driver13CloseAllPortsEv
080359b8 T _ZN12USART_Driver13DiscardBufferEij
08035c28 T _ZN12USART_Driver16ConnectEventSinkEiiPvPFvS0_jEPS0_
08036588 T _ZN12USART_Driver17AddCharToRxBufferEic
08035904 T _ZN12USART_Driver20BytesInManagedBufferEij
080356cc T _ZN12USART_Driver22RemoveCharFromTxBufferEiRc
080361cc T _ZN12USART_Driver4ReadEiPcj
080357c4 T _ZN12USART_Driver5FlushEi
08035d30 T _ZN12USART_Driver5WriteEiPKcj
08035868 T _ZN12USART_Driver7SendXONEij
08035ca8 T _ZN12USART_Driver8SetEventEij
20004b90 B _ZN12VirtualTimer13isInitializedE
08023538 T _ZN13CLR_Messaging10InitializeEiPK34CLR_Messaging_CommandHandlerLookupjS2_jPv
080236c8 T _ZN13CLR_Messaging10PurgeCacheER20CLR_RT_DblLinkedListx
08023714 T _ZN13CLR_Messaging10PurgeCacheEv
08023474 T _ZN13CLR_Messaging11App_ReleaseEPvP10WP_Message
08023694 T _ZN13CLR_Messaging13ProcessHeaderEP10WP_Message
080235ec T _ZN13CLR_Messaging14CreateInstanceEv
08023670 T _ZN13CLR_Messaging14DeleteInstanceEv
08023958 T _ZN13CLR_Messaging14Messaging_SendEP10WP_MessagePv
08023a50 T _ZN13CLR_Messaging14ProcessPayloadEP10WP_Message
08023a3c T _ZN13CLR_Messaging14ReplyToCommandEP10WP_Messagebb
080238b4 T _ZN13CLR_Messaging14ReplyToCommandEP10WP_MessagebbPvi
08023918 T _ZN13CLR_Messaging15Messaging_QueryEP10WP_MessagePv
080239cc T _ZN13CLR_Messaging15Messaging_ReplyEP10WP_MessagePv
08023684 T _ZN13CLR_Messaging15ProcessCommandsEv
0802374c T _ZN13CLR_Messaging15TransmitMessageEPK10WP_Messageb
08023440 T _ZN13CLR_Messaging16Phy_ReceiveBytesEPvRPhRj
08023698 T _ZN13CLR_Messaging17App_ProcessHeaderEPvP10WP_Message
08023b78 T _ZN13CLR_Messaging18App_ProcessPayloadEPvP10WP_Message
08023890 T _ZN13CLR_Messaging19Phy_TransmitMessageEPvPK10WP_Message
0802348c T _ZN13CLR_Messaging23AllocateAndQueueMessageEjjPhN25CLR_RT_HeapBlock_EndPoint4PortENS1_7AddressEj
08023630 T _ZN13CLR_Messaging7CleanupEv
0802389c T _ZN13CLR_Messaging9SendEventEjjPhj
08045338 T _ZN13CLR_RECORD_EH21ExtractEhFromByteCodeEPKhRPKS_Rj
0804860c T _ZN13CLR_RT_Memory18Allocate_And_EraseEjj
08043834 T _ZN13CLR_RT_Memory5ResetEv
08043848 T _ZN13CLR_RT_Memory7ReleaseEPv
0804823c T _ZN13CLR_RT_Memory8AllocateEjj
080446c4 T _ZN13CLR_RT_Random10InitializeEi
080446ac T _ZN13CLR_RT_Random10InitializeEv
08044728 T _ZN13CLR_RT_Random10NextDoubleEv
080446c8 T _ZN13CLR_RT_Random4NextEv
08044748 T _ZN13CLR_RT_Random9NextBytesEPhj
0804dfb4 T _ZN13CLR_RT_Thread10Execute_ILEP17CLR_RT_StackFrame
08046908 T _ZN13CLR_RT_Thread11FindEhBlockEP17CLR_RT_StackFramePKhS3_R23CLR_RT_ExceptionHandlerb
0804465c T _ZN13CLR_RT_Thread11PopEH_InnerEP17CLR_RT_StackFramePKh
0804b7b4 T _ZN13CLR_RT_Thread13Execute_InnerEv
080448f0 T _ZN13CLR_RT_Thread13RecoverFromGCEv
0804cbf8 T _ZN13CLR_RT_Thread14CreateInstanceEiiRPS_j
0804cd24 T _ZN13CLR_RT_Thread14CreateInstanceEiP25CLR_RT_HeapBlock_DelegateiRPS_j
0804b210 T _ZN13CLR_RT_Thread15DestroyInstanceEv
0804c73c T _ZN13CLR_RT_Thread16ProcessExceptionEv
08044830 T _ZN13CLR_RT_Thread17CanThreadBeReusedEv
08044818 T _ZN13CLR_RT_Thread17IsFinalizerThreadEv
0804484c T _ZN13CLR_RT_Thread17ReleaseWhenDeadExEv
0804ac30 T _ZN13CLR_RT_Thread18OnThreadTerminatedEv
0804c8e8 T _ZN13CLR_RT_Thread19RTOS_Thread_ExecuteEv
080419d8 T _ZN13CLR_RT_Thread21ProtectFromGCCallbackEPv
080447d8 T _ZN13CLR_RT_Thread22BringExecCounterToDateEii
0804def0 T _ZN13CLR_RT_Thread22Execute_DelegateInvokeEP17CLR_RT_StackFrame
0804c14c T _ZN13CLR_RT_Thread22PushThreadProcDelegateEP25CLR_RT_HeapBlock_Delegate
0804c37c T _ZN13CLR_RT_Thread23ProcessException_Phase1Ev
0804b4a4 T _ZN13CLR_RT_Thread23ProcessException_Phase2Ev
0804c9c4 T _ZN13CLR_RT_Thread26ProcessException_EndFilterEv
0804cac4 T _ZN13CLR_RT_Thread27ProcessException_EndFinallyEv
080448f8 T _ZN13CLR_RT_Thread42ProcessException_FilterPseudoFrameCopyVarsEP17CLR_RT_StackFrameS1_
0804b0f8 T _ZN13CLR_RT_Thread5AbortEv
080445fc T _ZN13CLR_RT_Thread6PushEHEv
0804adc0 T _ZN13CLR_RT_Thread6ResumeEv
0804c7d4 T _ZN13CLR_RT_Thread7ExecuteEv
0804ae18 T _ZN13CLR_RT_Thread7RestartEb
0804ad98 T _ZN13CLR_RT_Thread7SuspendEv
08042b00 T _ZN13CLR_RT_Thread8RelocateEv
0804ac60 T _ZN13CLR_RT_Thread9PassivateEv
0804ade8 T _ZN13CLR_RT_Thread9TerminateEv
08021cd8 T _ZN13MfReleaseInfo4InitERS_ttttPKcj
08025d7c T _ZN13NeighborTable10ClearTableEv
08025db4 T _ZN13NeighborTable10GetFreeIdxEPh
08025e14 T _ZN13NeighborTable14GetNeighborPtrEt
08026160 T _ZN13NeighborTable14InsertNeighborEPK35NeighborTableCommonParameters_One_tPK35NeighborTableCommonParameters_Two_t
080261c0 T _ZN13NeighborTable14UpdateNeighborEPK35NeighborTableCommonParameters_One_t
08025fec T _ZN13NeighborTable14UpdateNeighborEPK35NeighborTableCommonParameters_One_tPK35NeighborTableCommonParameters_Two_t
080258e4 T _ZN13NeighborTable16BringOutYourDeadEj
08025888 T _ZN13NeighborTable17FindIndexEvenDeadEtPh
08025e3c T _ZN13NeighborTable17NumberOfNeighborsEv
08026364 T _ZN13NeighborTable18RecordTimeSyncRecvEty
08026324 T _ZN13NeighborTable18RecordTimeSyncSentEty
080258f0 T _ZN13NeighborTable19ClearNeighborwIndexEh
080263a4 T _ZN13NeighborTable19GetLastTimeSyncRecvEt
08025fac T _ZN13NeighborTable19RecordLastHeardTimeEty
080258e8 T _ZN13NeighborTable19UpdateNeighborTableEj
08025e9c T _ZN13NeighborTable20FindOrInsertNeighborEtPh
08025e64 T _ZN13NeighborTable22NumberOfNeighborsTotalEv
08025e94 T _ZN13NeighborTable25PreviousNumberOfNeighborsEv
08025f00 T _ZN13NeighborTable25RecordSenderDelayIncomingEtRKh
080262e4 T _ZN13NeighborTable25RecordTimeSyncRequestSentEty
08025e98 T _ZN13NeighborTable28SetPreviousNumberOfNeighborsEh
080263e8 T _ZN13NeighborTable35GetCritalSyncNeighborWOldestSyncPtrERKyS1_S1_S1_
080258b0 T _ZN13NeighborTable9FindIndexEtPh
0803136c T _ZN13OMACScheduler10InitializeEhh
080316a0 T _ZN13OMACScheduler12FailsafeStopEv
080314e0 T _ZN13OMACScheduler12RunEventTaskEv
08030e8c T _ZN13OMACScheduler12UnInitializeEv
08030ec0 T _ZN13OMACScheduler13GetSlotNumberEv
08031488 T _ZN13OMACScheduler13PostExecutionEv
08031470 T _ZN13OMACScheduler15EnsureStopRadioEv
08030f20 T _ZN13OMACScheduler17ScheduleNextEventEv
08030f0c T _ZN13OMACScheduler22GetSlotNumberfromTicksERKy
0802a53c T _ZN13STM32F10x_RTC10GetCompareEv
0802a430 T _ZN13STM32F10x_RTC10InitializeEjPFvPvEj
0802a4e4 T _ZN13STM32F10x_RTC10SetCompareEy
0802a540 T _ZN13STM32F10x_RTC11GetMaxTicksEv
0802a3d0 T _ZN13STM32F10x_RTC12Get64CounterEv
08024734 T _ZN13WP_Controller10InitializeEPKcPK16WP_PhysicalLayerPK19WP_ApplicationLayerPv
0802497c T _ZN13WP_Controller12AdvanceStateEv
08024988 T _ZN13WP_Controller19SendProtocolMessageEjjjPh
08024764 T _ZN13WP_Controller19SendProtocolMessageERK10WP_Message
08056550 T _ZN14CLR_GFX_Bitmap14CreateInstanceER16CLR_RT_HeapBlockPKhjP15CLR_RT_Assembly
08036c3c T _ZN14HAL_COMPLETION12EnqueueDeltaEj
08036b84 T _ZN14HAL_COMPLETION12EnqueueTicksEy
08036de8 T _ZN14HAL_COMPLETION12UninitializeEv
08036ebc T _ZN14HAL_COMPLETION14DequeueAndExecEv
08036c10 T _ZN14HAL_COMPLETION14EnqueueDelta64Ey
08036b70 T _ZN14HAL_COMPLETION14InitializeListEv
200050b8 B _ZN14HAL_COMPLETION16late_calls_totalE
08036cac T _ZN14HAL_COMPLETION17WaitForInterruptsEyjy
08036c48 T _ZN14HAL_COMPLETION5AbortEv
08036e8c T _ZN14HAL_COMPLETION7ExecuteEv
080405ac T _ZN14PalEventDriver10InitializeEv
080405dc T _ZN14PalEventDriver12UninitializeEv
20005818 B _ZN14PalEventDriver13s_initializedE
0802ebf0 T _ZN14RadioControl_t10InitializeEv
0802f144 T _ZN14RadioControl_t12UninitializeEv
0802ef88 T _ZN14RadioControl_t17PiggybackMessagesEP23IEEE802_15_4_Message_t2Rt
0802ed58 T _ZN14RadioControl_t21PiggybackDiscoMessageEP23IEEE802_15_4_Message_t2Rt
0802ebfc T _ZN14RadioControl_t24PiggybackTimeSyncMessageEP23IEEE802_15_4_Message_t2Rt
0802eda4 T _ZN14RadioControl_t27PiggybackEntendedMACInfoMsgEP23IEEE802_15_4_Message_t2Rt
0802f024 T _ZN14RadioControl_t4SendEtP23IEEE802_15_4_Message_t2t
0802f120 T _ZN14RadioControl_t4StopEv
0802f14c T _ZN14RadioControl_t7StartRxEv
080566a4 T _ZN15CLR_HW_Hardware12PrepareForGCEv
08056560 T _ZN15CLR_HW_Hardware14CreateInstanceEv
08056690 T _ZN15CLR_HW_Hardware14DeleteInstanceEv
080566a8 T _ZN15CLR_HW_Hardware15ProcessActivityEv
08057104 T _ZN15CLR_HW_Hardware15SpawnDispatcherEv
08056678 T _ZN15CLR_HW_Hardware16Hardware_CleanupEv
0805730c T _ZN15CLR_HW_Hardware17ProcessInterruptsEv
08056578 T _ZN15CLR_HW_Hardware19Hardware_InitializeEv
080570b8 T _ZN15CLR_HW_Hardware19SpawnRTOSDispatcherEP27CLR_RT_ApplicationInterrupt
08057198 T _ZN15CLR_HW_Hardware39TransferAllInterruptsToApplicationQueueEv
080447a4 T _ZN15CLR_RT_Assembly10InitStringEv
08045d74 T _ZN15CLR_RT_Assembly11FindTypeDefEjR20CLR_RT_TypeDef_Index
08045ba8 T _ZN15CLR_RT_Assembly11FindTypeDefEPKcS1_R20CLR_RT_TypeDef_Index
08045c10 T _ZN15CLR_RT_Assembly11FindTypeDefEPKctR20CLR_RT_TypeDef_Index
08047128 T _ZN15CLR_RT_Assembly12FindFieldDefEPK18CLR_RECORD_TYPEDEFPKcPS_tR21CLR_RT_FieldDef_Index
080454e0 T _ZN15CLR_RT_Assembly12Resolve_LinkEv
08045e2c T _ZN15CLR_RT_Assembly12VerifyEndianEP19CLR_RECORD_ASSEMBLY
080471f0 T _ZN15CLR_RT_Assembly13FindMethodDefEPK18CLR_RECORD_TYPEDEFPKcPS_tR22CLR_RT_MethodDef_Index
0804874c T _ZN15CLR_RT_Assembly14CreateInstanceEPK19CLR_RECORD_ASSEMBLYRPS_
080454b8 T _ZN15CLR_RT_Assembly15DestroyInstanceEv
08045d30 T _ZN15CLR_RT_Assembly15Resolve_TypeDefEv
08045c64 T _ZN15CLR_RT_Assembly15Resolve_TypeRefEv
08047174 T _ZN15CLR_RT_Assembly16Resolve_FieldRefEv
08045af0 T _ZN15CLR_RT_Assembly17Resolve_MethodDefEv
08047288 T _ZN15CLR_RT_Assembly17Resolve_MethodRefEv
0804d9b8 T _ZN15CLR_RT_Assembly18ComputeHashForNameERK20CLR_RT_TypeDef_Indexj
08050848 T _ZN15CLR_RT_Assembly18ComputeHashForTypeE12CLR_DataTypej
08045424 T _ZN15CLR_RT_Assembly19Assembly_InitializeERNS_7OffsetsE
08045b94 T _ZN15CLR_RT_Assembly19ComputeAssemblyHashEPK22CLR_RECORD_ASSEMBLYREF
08045b84 T _ZN15CLR_RT_Assembly19ComputeAssemblyHashEv
0804d6f0 T _ZN15CLR_RT_Assembly19PrepareForExecutionEv
08045f68 T _ZN15CLR_RT_Assembly19Resolve_AssemblyRefEb
08045da4 T _ZN15CLR_RT_Assembly20FindMethodBoundariesEtRtS0_
08050868 T _ZN15CLR_RT_Assembly21Resolve_ComputeHashesEv
08045de8 T _ZN15CLR_RT_Assembly25FindNextStaticConstructorER22CLR_RT_MethodDef_Index
08048d90 T _ZN15CLR_RT_Assembly28Resolve_AllocateStaticFieldsEP16CLR_RT_HeapBlock
08041cd0 T _ZN15CLR_RT_Assembly8RelocateEv
080447a8 T _ZN15CLR_RT_Assembly9GetStringEt
0803bb24 T _ZN15I2C_HAL_XACTION10InitializeER22I2C_USER_CONFIGURATIONPP20I2C_HAL_XACTION_UNITj
0803bb50 T _ZN15I2C_HAL_XACTION6SignalEhj
08058010 T _ZN15InferenceEngine3EMI10runEMITestEP16CLR_RT_HeapBlockRi
08058014 T _ZN15InferenceEngine3EMI9EMIDriverEP16CLR_RT_HeapBlock17CLR_RT_TypedArrayIjERi
080585b4 T _ZN15InferenceEngine8FastGRNN14FastGRNNDriverEP16CLR_RT_HeapBlock17CLR_RT_TypedArrayIjERi
080585b0 T _ZN15InferenceEngine8FastGRNN15runFastGRNNTestEP16CLR_RT_HeapBlockRi
080403e4 T _ZN15Watchdog_Driver13GetSetEnabledEjj
08040428 T _ZN15Watchdog_Driver13GetSetTimeoutEij
0804048c T _ZN15Watchdog_Driver13LastOccurenceERNS_13WatchdogEventEj
0804046c T _ZN15Watchdog_Driver14GetSetBehaviorE17Watchdog_Behaviorj
080404b8 T _ZN15Watchdog_Driver16WatchdogCallbackEPv
08024a30 T _ZN16BlockStorageList10InitializeEv
20001ce0 B _ZN16BlockStorageList12s_deviceListE
08024bf0 T _ZN16BlockStorageList13GetNextDeviceER18BlockStorageDevice
20001cf0 B _ZN16BlockStorageList13s_InitializedE
08024bcc T _ZN16BlockStorageList14GetFirstDeviceEv
20001cec B _ZN16BlockStorageList15s_primaryDeviceE
08024e58 T _ZN16BlockStorageList17InitializeDevicesEv
08024a5c T _ZN16BlockStorageList19UnInitializeDevicesEv
08024b24 T _ZN16BlockStorageList28FindDeviceForPhysicalAddressEPP18BlockStorageDevicejRj
08024abc T _ZN16BlockStorageList9AddDeviceEP18BlockStorageDeviceP19IBlockStorageDevicePvj
08021018 T _ZN16CLR_DBG_Debugger10PurgeCacheEv
0802177c T _ZN16CLR_DBG_Debugger12AccessMemoryEjjPhi
08022354 T _ZN16CLR_DBG_Debugger12CheckTypeDefERK20CLR_RT_TypeDef_IndexR23CLR_RT_TypeDef_Instance
08021320 T _ZN16CLR_DBG_Debugger12Monitor_PingEP10WP_MessagePv
08022384 T _ZN16CLR_DBG_Debugger13CheckFieldDefERK21CLR_RT_FieldDef_IndexR24CLR_RT_FieldDef_Instance
20005d04 B _ZN16CLR_DBG_Debugger13fNoCompactionE
080223b4 T _ZN16CLR_DBG_Debugger14CheckMethodDefERK22CLR_RT_MethodDef_IndexR25CLR_RT_MethodDef_Instance
08020f14 T _ZN16CLR_DBG_Debugger14CreateInstanceEv
08020ff8 T _ZN16CLR_DBG_Debugger14DeleteInstanceEv
0802232c T _ZN16CLR_DBG_Debugger14IsGoodAssemblyEt
08021b38 T _ZN16CLR_DBG_Debugger14Monitor_RebootEP10WP_MessagePv
080215bc T _ZN16CLR_DBG_Debugger15CheckPermissionEji
080223e4 T _ZN16CLR_DBG_Debugger15CheckStackFrameEjjRb
08021b1c T _ZN16CLR_DBG_Debugger15Monitor_ExecuteEP10WP_MessagePv
0802100c T _ZN16CLR_DBG_Debugger15ProcessCommandsEv
08020fec T _ZN16CLR_DBG_Debugger16Debugger_CleanupEv
08021044 T _ZN16CLR_DBG_Debugger16GetThreadFromPidEj
08021224 T _ZN16CLR_DBG_Debugger17CreateListOfCallsEjRPN16CLR_DBG_Commands22Debugging_Thread_Stack5ReplyERi
08021bbc T _ZN16CLR_DBG_Debugger17Monitor_MemoryMapEP10WP_MessagePv
08020df8 T _ZN16CLR_DBG_Debugger18Debugger_DiscoveryEv
08021024 T _ZN16CLR_DBG_Debugger18GetAppDomainFromIDEj
080219c8 T _ZN16CLR_DBG_Debugger18Monitor_ReadMemoryEP10WP_MessagePv
080211ac T _ZN16CLR_DBG_Debugger19CreateListOfThreadsERPN16CLR_DBG_Commands21Debugging_Thread_List5ReplyERi
08020e9c T _ZN16CLR_DBG_Debugger19Debugger_InitializeEi
20005af4 B _ZN16CLR_DBG_Debugger19debuggerErasedFlashE
08021a64 T _ZN16CLR_DBG_Debugger19Monitor_CheckMemoryEP10WP_MessagePv
08021a98 T _ZN16CLR_DBG_Debugger19Monitor_EraseMemoryEP10WP_MessagePv
08021a24 T _ZN16CLR_DBG_Debugger19Monitor_WriteMemoryEP10WP_MessagePv
08022710 T _ZN16CLR_DBG_Debugger20Debugging_Stack_InfoEP10WP_MessagePv
0802259c T _ZN16CLR_DBG_Debugger20Debugging_Thread_GetEP10WP_MessagePv
080233c4 T _ZN16CLR_DBG_Debugger21Debugging_Info_SetJMCEP10WP_MessagePv
080227bc T _ZN16CLR_DBG_Debugger21Debugging_Stack_SetIPEP10WP_MessagePv
08022508 T _ZN16CLR_DBG_Debugger21Debugging_Thread_KillEP10WP_MessagePv
0802246c T _ZN16CLR_DBG_Debugger21Debugging_Thread_ListEP10WP_MessagePv
08021bfc T _ZN16CLR_DBG_Debugger21Monitor_DeploymentMapEP10WP_MessagePv
08022fcc T _ZN16CLR_DBG_Debugger22Debugging_Resolve_TypeEP10WP_MessagePv
080224b8 T _ZN16CLR_DBG_Debugger22Debugging_Thread_StackEP10WP_MessagePv
08021e98 T _ZN16CLR_DBG_Debugger22Debugging_UpgradeToSslEP10WP_MessagePv
08022e00 T _ZN16CLR_DBG_Debugger22Debugging_Value_AssignEP10WP_MessagePv
0802146c T _ZN16CLR_DBG_Debugger22Monitor_FlashSectorMapEP10WP_MessagePv
08023030 T _ZN16CLR_DBG_Debugger23Debugging_Resolve_FieldEP10WP_MessagePv
08022570 T _ZN16CLR_DBG_Debugger23Debugging_Thread_ResumeEP10WP_MessagePv
0802268c T _ZN16CLR_DBG_Debugger23Debugging_Thread_UnwindEP10WP_MessagePv
08020d9c T _ZN16CLR_DBG_Debugger24Debugger_WaitForCommandsEv
08021ef8 T _ZN16CLR_DBG_Debugger24Debugging_MFUpdate_StartEP10WP_MessagePv
080230ac T _ZN16CLR_DBG_Debugger24Debugging_Resolve_MethodEP10WP_MessagePv
08022544 T _ZN16CLR_DBG_Debugger24Debugging_Thread_SuspendEP10WP_MessagePv
08022bb0 T _ZN16CLR_DBG_Debugger24Debugging_Value_GetArrayEP10WP_MessagePv
08022c50 T _ZN16CLR_DBG_Debugger24Debugging_Value_GetBlockEP10WP_MessagePv
08022a78 T _ZN16CLR_DBG_Debugger24Debugging_Value_GetFieldEP10WP_MessagePv
080228b0 T _ZN16CLR_DBG_Debugger24Debugging_Value_GetStackEP10WP_MessagePv
08022cb4 T _ZN16CLR_DBG_Debugger24Debugging_Value_SetArrayEP10WP_MessagePv
08022c90 T _ZN16CLR_DBG_Debugger24Debugging_Value_SetBlockEP10WP_MessagePv
08022424 T _ZN16CLR_DBG_Debugger25Debugging_Thread_CreateExEP10WP_MessagePv
20001b80 B _ZN16CLR_DBG_Debugger25m_deploymentStorageDeviceE
08023374 T _ZN16CLR_DBG_Debugger26Debugging_Info_SetJMC_TypeERK20CLR_RT_TypeDef_Indexb
080221dc T _ZN16CLR_DBG_Debugger26Debugging_MFUpdate_InstallEP10WP_MessagePv
08022f64 T _ZN16CLR_DBG_Debugger26Debugging_Resolve_AssemblyEP10WP_MessagePv
08023174 T _ZN16CLR_DBG_Debugger27Debugging_Deployment_StatusEP10WP_MessagePv
08021c58 T _ZN16CLR_DBG_Debugger27Debugging_Execution_BasePtrEP10WP_MessagePv
08022ed0 T _ZN16CLR_DBG_Debugger27Debugging_Resolve_AppDomainEP10WP_MessagePv
08021e60 T _ZN16CLR_DBG_Debugger28Debugging_Execution_AllocateEP10WP_MessagePv
08023330 T _ZN16CLR_DBG_Debugger28Debugging_Info_SetJMC_MethodERK22CLR_RT_MethodDef_Indexb
08022134 T _ZN16CLR_DBG_Debugger28Debugging_MFUpdate_AddPacketEP10WP_MessagePv
08022e84 T _ZN16CLR_DBG_Debugger28Debugging_TypeSys_AppDomainsEP10WP_MessagePv
08022e3c T _ZN16CLR_DBG_Debugger28Debugging_TypeSys_AssembliesEP10WP_MessagePv
08022660 T _ZN16CLR_DBG_Debugger29Debugging_Thread_GetExceptionEP10WP_MessagePv
08022dbc T _ZN16CLR_DBG_Debugger29Debugging_Value_AllocateArrayEP10WP_MessagePv
08022c6c T _ZN16CLR_DBG_Debugger29Debugging_Value_GetScratchPadEP10WP_MessagePv
08021f54 T _ZN16CLR_DBG_Debugger30Debugging_MFUpdate_AuthCommandEP10WP_MessagePv
08022d34 T _ZN16CLR_DBG_Debugger30Debugging_Value_AllocateObjectEP10WP_MessagePv
08022d70 T _ZN16CLR_DBG_Debugger30Debugging_Value_AllocateStringEP10WP_MessagePv
080222b8 T _ZN16CLR_DBG_Debugger31Debugging_Execution_BreakpointsEP10WP_MessagePv
08022004 T _ZN16CLR_DBG_Debugger31Debugging_MFUpdate_AuthenticateEP10WP_MessagePv
08023128 T _ZN16CLR_DBG_Debugger31Debugging_Resolve_VirtualMethodEP10WP_MessagePv
08022830 T _ZN16CLR_DBG_Debugger32Debugging_Value_ResizeScratchPadEP10WP_MessagePv
080220a0 T _ZN16CLR_DBG_Debugger33Debugging_MFUpdate_GetMissingPktsEP10WP_MessagePv
080222f0 T _ZN16CLR_DBG_Debugger36Debugging_Execution_BreakpointStatusEP10WP_MessagePv
08021c84 T _ZN16CLR_DBG_Debugger36Debugging_Execution_ChangeConditionsEP10WP_MessagePv
08022280 T _ZN16CLR_DBG_Debugger39Debugging_Execution_SetCurrentAppDomainEP10WP_MessagePv
08021d70 T _ZN16CLR_DBG_Debugger40Debugging_Execution_QueryCLRCapabilitiesEP10WP_MessagePv
08022234 T _ZN16CLR_DBG_Debugger8GetValueEP10WP_MessageP16CLR_RT_HeapBlockS3_P23CLR_RT_TypeDef_Instance
0804d61c T _ZN16CLR_RT_AppDomain12LoadAssemblyEP15CLR_RT_Assembly
0804a540 T _ZN16CLR_RT_AppDomain13GetAssembliesER16CLR_RT_HeapBlock
08047e38 T _ZN16CLR_RT_AppDomain13MarshalObjectER16CLR_RT_HeapBlockS1_PS_
080459d4 T _ZN16CLR_RT_AppDomain13RecoverFromGCEv
0804d3d0 T _ZN16CLR_RT_AppDomain14CreateInstanceEPKcRPS_
080459a8 T _ZN16CLR_RT_AppDomain15DestroyInstanceEv
0804b984 T _ZN16CLR_RT_AppDomain16GetManagedObjectER16CLR_RT_HeapBlock
080499f4 T _ZN16CLR_RT_AppDomain17MarshalParametersEP16CLR_RT_HeapBlockS1_ibPS_
08045680 T _ZN16CLR_RT_AppDomain18VerifyTypeIsLoadedERK20CLR_RT_TypeDef_Index
080455c8 T _ZN16CLR_RT_AppDomain20AppDomain_InitializeEv
080455fc T _ZN16CLR_RT_AppDomain21FindAppDomainAssemblyEP15CLR_RT_Assembly
08045994 T _ZN16CLR_RT_AppDomain22AppDomain_UninitializeEv
080456ac T _ZN16CLR_RT_AppDomain8IsLoadedEv
08041cb4 T _ZN16CLR_RT_AppDomain8RelocateEv
080443f0 T _ZN16CLR_RT_HeapBlock10InitObjectEv
08042388 T _ZN16CLR_RT_HeapBlock10NumericAddERKS_
08042648 T _ZN16CLR_RT_HeapBlock10NumericDivERKS_
0804254c T _ZN16CLR_RT_HeapBlock10NumericMulERKS_
08042a2c T _ZN16CLR_RT_HeapBlock10NumericNegEv
08042778 T _ZN16CLR_RT_HeapBlock10NumericRemERKS_
080428e0 T _ZN16CLR_RT_HeapBlock10NumericShlERKS_
08042938 T _ZN16CLR_RT_HeapBlock10NumericShrERKS_
08042468 T _ZN16CLR_RT_HeapBlock10NumericSubERKS_
08044ba0 T _ZN16CLR_RT_HeapBlock11GetHashCodeEPS_bj
08042704 T _ZN16CLR_RT_HeapBlock12NumericDivUnERKS_
08042870 T _ZN16CLR_RT_HeapBlock12NumericRemUnERKS_
080429d0 T _ZN16CLR_RT_HeapBlock12NumericShrUnERKS_
08042190 T _ZN16CLR_RT_HeapBlock12ObjectsEqualERKS_S1_b
08041b60 T _ZN16CLR_RT_HeapBlock12Relocate_ClsEv
08041b54 T _ZN16CLR_RT_HeapBlock12Relocate_ObjEv
08041b78 T _ZN16CLR_RT_HeapBlock12Relocate_RefEv
08044b28 T _ZN16CLR_RT_HeapBlock12SetObjectClsERK20CLR_RT_TypeDef_Index
08049cd0 T _ZN16CLR_RT_HeapBlock13PerformBoxingERK23CLR_RT_TypeDef_Instance
08041f58 T _ZN16CLR_RT_HeapBlock13SetReflectionERK20CLR_RT_TypeDef_Index
08041f40 T _ZN16CLR_RT_HeapBlock13SetReflectionERK21CLR_RT_Assembly_Index
08041f70 T _ZN16CLR_RT_HeapBlock13SetReflectionERK21CLR_RT_FieldDef_Index
08046c8c T _ZN16CLR_RT_HeapBlock13SetReflectionERK21CLR_RT_TypeSpec_Index
08045034 T _ZN16CLR_RT_HeapBlock13SetReflectionERK22CLR_RT_MethodDef_Index
08041f28 T _ZN16CLR_RT_HeapBlock13SetReflectionERK26CLR_RT_ReflectionDef_Index
08046198 T _ZN16CLR_RT_HeapBlock14Compare_ValuesERKS_S1_b
08049e2c T _ZN16CLR_RT_HeapBlock15PerformUnboxingERK23CLR_RT_TypeDef_Instance
08041b40 T _ZN16CLR_RT_HeapBlock15Relocate_StringEv
08044468 T _ZN16CLR_RT_HeapBlock16Convert_InternalE12CLR_DataType
08041f10 T _ZN16CLR_RT_HeapBlock16InitializeToZeroEv
08049558 T _ZN16CLR_RT_HeapBlock16StoreToReferenceERS_i
08049254 T _ZN16CLR_RT_HeapBlock17LoadFromReferenceERS_
08041b84 T _ZN16CLR_RT_HeapBlock17Relocate_ArrayRefEv
08044b4c T _ZN16CLR_RT_HeapBlock18FixBoxingReferenceEv
08042a94 T _ZN16CLR_RT_HeapBlock19Relocate__HeapBlockEv
08045734 T _ZN16CLR_RT_HeapBlock21EnsureObjectReferenceERPS_
08049db0 T _ZN16CLR_RT_HeapBlock21PerformBoxingIfNeededEv
08041f98 T _ZN16CLR_RT_HeapBlock24InitializeArrayReferenceERS_i
08041b90 T _ZN16CLR_RT_HeapBlock25Relocate_TransparentProxyEv
0804204c T _ZN16CLR_RT_HeapBlock28AssignAndPinReferencedObjectERKS_
08044c68 T _ZN16CLR_RT_HeapBlock28SetTransparentProxyReferenceEP16CLR_RT_AppDomainPS_
08041fdc T _ZN16CLR_RT_HeapBlock30FixArrayReferenceForValueTypesEv
08041f88 T _ZN16CLR_RT_HeapBlock30InitializeArrayReferenceDirectER22CLR_RT_HeapBlock_Arrayi
08042120 T _ZN16CLR_RT_HeapBlock7PromoteEv
08049390 T _ZN16CLR_RT_HeapBlock8ReassignERKS_
0804cb84 T _ZN16CLR_RT_SubThread14CreateInstanceEP13CLR_RT_ThreadP17CLR_RT_StackFrameiRPS_
0804abc8 T _ZN16CLR_RT_SubThread15DestroyInstanceEP13CLR_RT_ThreadPS_i
0804afd0 T _ZN16CLR_RT_SubThread22ChangeLockRequestCountEi
080672ec T _ZN16DecisionFunction10InitializeEttffPfS0_S0_
20008234 B _ZN16DecisionFunction11feature_minE
08067534 T _ZN16DecisionFunction13InitDataStoreEv
20008238 B _ZN16DecisionFunction14scalingFactorsE
0806745c T _ZN16DecisionFunction15Bytes_to_UINT32EPht
080673ec T _ZN16DecisionFunction15Double_to_FixedEd
08067448 T _ZN16DecisionFunction15Fixed_to_DoubleEy
08067428 T _ZN16DecisionFunction16Fixed_Point_MultEii
20008230 B _ZN16DecisionFunction3nSVE
200015f8 D _ZN16DecisionFunction3rhoE
200015fc D _ZN16DecisionFunction5gammaE
08067558 T _ZN16DecisionFunction6DecideEPj
080674c8 T _ZN16DecisionFunction6KernelEPjS0_
2000822c B _ZN16DecisionFunction6weightE
2000823c B _ZN16DecisionFunction8nFeatureE
08067474 T _ZN16DecisionFunction9NormalizeEPfPj
0803a72c T _ZN16DiscoveryHandler10InitializeEhh
0803a2b0 T _ZN16DiscoveryHandler12ExecuteEventEv
0803a318 T _ZN16DiscoveryHandler12FailsafeStopEv
0803a330 T _ZN16DiscoveryHandler12ShouldBeaconEv
0803a334 T _ZN16DiscoveryHandler13CreateMessageEP12DiscoveryMsg
0803a118 T _ZN16DiscoveryHandler13GetSlotNumberEv
0803a35c T _ZN16DiscoveryHandler16BeaconAckHandlerEP23IEEE802_15_4_Message_t2h11NetOpStatus
0803a1c8 T _ZN16DiscoveryHandler16NextEventinSlotsERKy
0803a248 T _ZN16DiscoveryHandler16PostExecuteEventEv
0803a624 T _ZN16DiscoveryHandler19BeaconNTimerHandlerEv
0803a3c0 T _ZN16DiscoveryHandler20HandleRadioInterruptEv
0803a664 T _ZN16DiscoveryHandler21TempIncreaseDiscoRateEv
0803a168 T _ZN16DiscoveryHandler23GetTimeTillTheEndofSlotEv
0803a6cc T _ZN16DiscoveryHandler28PermanentlyDecreaseDiscoRateEv
0803a46c T _ZN16DiscoveryHandler4SendEtP23IEEE802_15_4_Message_t2ty
0803a4cc T _ZN16DiscoveryHandler6BeaconEtP23IEEE802_15_4_Message_t2
0803a51c T _ZN16DiscoveryHandler7Beacon1Ev
0803a5a0 T _ZN16DiscoveryHandler7BeaconNEv
0803a3c4 T _ZN16DiscoveryHandler7ReceiveEtP12DiscoveryMsgP23MsgLinkQualityMetrics_t
20005296 B _ZN16DiscoveryHandler9m_period1E
2000529a B _ZN16DiscoveryHandler9m_period2E
0803a76c T _ZN16DiscoveryHandler9NextEventEv
0802583c T _ZN16HAL_CONFIG_BLOCK11ApplyConfigEPKcPvjPS2_
08025838 T _ZN16HAL_CONFIG_BLOCK19UpdateBlockWithNameEPKcPvjj
08037010 T _ZN16HAL_CONTINUATION12UninitializeEv
08036e34 T _ZN16HAL_CONTINUATION14InitializeListEv
08037004 T _ZN16HAL_CONTINUATION18InitializeCallbackEPFvPvES0_
08036f94 T _ZN16HAL_CONTINUATION19Dequeue_And_ExecuteEv
08036f68 T _ZN16HAL_CONTINUATION5AbortEv
08036e48 T _ZN16HAL_CONTINUATION7EnqueueEv
08036e28 T _ZN16HAL_CONTINUATION8IsLinkedEv
08040a80 T _ZN17CLR_RT_EventCache11Append_NodeEP16CLR_RT_HeapBlock
080481a8 T _ZN17CLR_RT_EventCache12Extract_NodeEjjj
08040adc T _ZN17CLR_RT_EventCache16FreeInlineBufferEP19CLR_RT_InlineBuffer
0804815c T _ZN17CLR_RT_EventCache17Extract_Node_FastEjjj
080480a0 T _ZN17CLR_RT_EventCache17Extract_Node_SlowEjjj
0804dd24 T _ZN17CLR_RT_EventCache17FindVirtualMethodERK20CLR_RT_TypeDef_IndexRK22CLR_RT_MethodDef_IndexRS3_
08041d8c T _ZN17CLR_RT_EventCache18EventCache_CleanupEv
080481bc T _ZN17CLR_RT_EventCache18Extract_Node_BytesEjjj
080409b4 T _ZN17CLR_RT_EventCache18VirtualMethodTable10InitializeEv
08040a48 T _ZN17CLR_RT_EventCache18VirtualMethodTable14MoveEntryToTopEPNS_4LinkEjj
0804dc1c T _ZN17CLR_RT_EventCache18VirtualMethodTable17FindVirtualMethodERK20CLR_RT_TypeDef_IndexRK22CLR_RT_MethodDef_IndexRS4_
08040ac0 T _ZN17CLR_RT_EventCache20GetInlineFrameBufferEPP19CLR_RT_InlineBuffer
08041d1c T _ZN17CLR_RT_EventCache21EventCache_InitializeEv
08048fc0 T _ZN17CLR_RT_StackFrame10PushInlineERPKhRP15CLR_RT_AssemblyRP16CLR_RT_HeapBlockR25CLR_RT_MethodDef_InstanceS7_
08043f28 T _ZN17CLR_RT_StackFrame12NegateResultEv
08043cb8 T _ZN17CLR_RT_StackFrame12RestoreStackER18CLR_RT_InlineFrame
08043dfc T _ZN17CLR_RT_StackFrame12SetResult_I4Ei
08043e24 T _ZN17CLR_RT_StackFrame12SetResult_I8ERx
08043d8c T _ZN17CLR_RT_StackFrame12SetResult_R4Ef
08043dbc T _ZN17CLR_RT_StackFrame12SetResult_R8Ed
08043e50 T _ZN17CLR_RT_StackFrame12SetResult_U4Ej
08043e78 T _ZN17CLR_RT_StackFrame12SetResult_U8ERy
08043f3c T _ZN17CLR_RT_StackFrame12SetupTimeoutER16CLR_RT_HeapBlockRPx
08043ee4 T _ZN17CLR_RT_StackFrame16SetResult_ObjectEP16CLR_RT_HeapBlock
08047d7c T _ZN17CLR_RT_StackFrame16SetResult_StringEPKc
08043eb8 T _ZN17CLR_RT_StackFrame17SetResult_BooleanEb
0804a8a8 T _ZN17CLR_RT_StackFrame18HandleSynchronizedEbb
08043fa0 T _ZN17CLR_RT_StackFrame18NotImplementedStubEv
08043f0c T _ZN17CLR_RT_StackFrame22ConvertResultToBooleanEv
08049b68 T _ZN17CLR_RT_StackFrame22PopAppDomainTransitionEv
08043bf0 T _ZN17CLR_RT_StackFrame22RestoreFromInlineStackEv
0804c0ac T _ZN17CLR_RT_StackFrame23PushAppDomainTransitionEP13CLR_RT_ThreadRK25CLR_RT_MethodDef_InstanceP16CLR_RT_HeapBlockS6_
0804a95c T _ZN17CLR_RT_StackFrame3PopEv
0804be70 T _ZN17CLR_RT_StackFrame4PushEP13CLR_RT_ThreadRK25CLR_RT_MethodDef_Instancei
08049edc T _ZN17CLR_RT_StackFrame7FixCallEv
0804dd30 T _ZN17CLR_RT_StackFrame8MakeCallE25CLR_RT_MethodDef_InstanceP16CLR_RT_HeapBlockS2_i
08041bd0 T _ZN17CLR_RT_StackFrame8RelocateEv
08043c30 T _ZN17CLR_RT_StackFrame9PopInlineEv
08043cf8 T _ZN17CLR_RT_StackFrame9SaveStackER18CLR_RT_InlineFrame
08043d28 T _ZN17CLR_RT_StackFrame9SetResultEi12CLR_DataType
08050960 T _ZN17CLR_RT_TypeSystem10ResolveAllEv
080460ac T _ZN17CLR_RT_TypeSystem11FindTypeDefEjR20CLR_RT_TypeDef_Index
08046cd4 T _ZN17CLR_RT_TypeSystem11FindTypeDefEPKcP15CLR_RT_AssemblyR20CLR_RT_TypeDef_Index
08046da0 T _ZN17CLR_RT_TypeSystem11FindTypeDefEPKcP15CLR_RT_AssemblyR26CLR_RT_ReflectionDef_Index
08046054 T _ZN17CLR_RT_TypeSystem11FindTypeDefEPKcS1_P15CLR_RT_AssemblyR20CLR_RT_TypeDef_Index
08046018 T _ZN17CLR_RT_TypeSystem11FindTypeDefEPKcS1_R20CLR_RT_TypeDef_Index
08045efc T _ZN17CLR_RT_TypeSystem12FindAssemblyEPKcPK18CLR_RECORD_VERSIONb
08047470 T _ZN17CLR_RT_TypeSystem13BuildTypeNameERK20CLR_RT_TypeDef_IndexRPcRj
0804736c T _ZN17CLR_RT_TypeSystem13BuildTypeNameERK20CLR_RT_TypeDef_IndexRPcRjjj
0804da48 T _ZN17CLR_RT_TypeSystem14BuildFieldNameERK21CLR_RT_FieldDef_IndexRPcRj
08046ef8 T _ZN17CLR_RT_TypeSystem14LocateResourceE24CLR_RT_Assembly_InstanceisRPK19CLR_RECORD_RESOURCERj
08047084 T _ZN17CLR_RT_TypeSystem14MatchSignatureER22CLR_RT_SignatureParserS1_
0804d9ec T _ZN17CLR_RT_TypeSystem15BuildMethodNameERK22CLR_RT_MethodDef_IndexRPcRj
08046ea8 T _ZN17CLR_RT_TypeSystem18LocateResourceFileE24CLR_RT_Assembly_InstancePKcRi
08045e70 T _ZN17CLR_RT_TypeSystem18TypeSystem_CleanupEv
0804d7a4 T _ZN17CLR_RT_TypeSystem19PrepareForExecutionEv
08047344 T _ZN17CLR_RT_TypeSystem19QueueStringToBufferERPcRjPKc
0804daa4 T _ZN17CLR_RT_TypeSystem20FindVirtualMethodDefERK20CLR_RT_TypeDef_IndexRK22CLR_RT_MethodDef_IndexPKcRS3_
0804db70 T _ZN17CLR_RT_TypeSystem20FindVirtualMethodDefERK20CLR_RT_TypeDef_IndexRK22CLR_RT_MethodDef_IndexRS3_
08047030 T _ZN17CLR_RT_TypeSystem20MatchSignatureDirectER22CLR_RT_SignatureParserS1_b
08046fa4 T _ZN17CLR_RT_TypeSystem21MatchSignatureElementERN22CLR_RT_SignatureParser7ElementES2_b
08045e98 T _ZN17CLR_RT_TypeSystem21PostLinkageProcessingEP15CLR_RT_Assembly
08045e48 T _ZN17CLR_RT_TypeSystem21TypeSystem_InitializeEv
08050834 T _ZN17CLR_RT_TypeSystem24MapDataTypeToElementTypeE12CLR_DataType
0804d774 T _ZN17CLR_RT_TypeSystem25PrepareForExecutionHelperEPKc
08045ec8 T _ZN17CLR_RT_TypeSystem4LinkEP15CLR_RT_Assembly
0803d8e0 T _ZN17P30BF65NOR_Driver10EraseBlockEj
0803d760 T _ZN17P30BF65NOR_Driver10InitializeEv
0803d724 T _ZN17P30BF65NOR_Driver10ReadBufferEPtjj
0803d6b4 T _ZN17P30BF65NOR_Driver11BlockUnlockEj
0803d9f4 T _ZN17P30BF65NOR_Driver11WriteBufferEPtjj
0803d70c T _ZN17P30BF65NOR_Driver12ReadHalfWordEj
0803d670 T _ZN17P30BF65NOR_Driver13IsBlockLockedEj
0803d95c T _ZN17P30BF65NOR_Driver13WriteHalfWordEjt
0803d750 T _ZN17P30BF65NOR_Driver16ReturnToReadModeEv
0803d6fc T _ZN17P30BF65NOR_Driver19ClearStatusRegisterEv
0803d698 T _ZN17P30BF65NOR_Driver6ReadIDEv
0803d878 T _ZN17P30BF65NOR_Driver9GetStatusEj
0803d8c0 T _ZN17P30BF65NOR_Driver9GetStatusEv
0803dc2c T _ZN17STM32_AITC_Driver10InitializeEv
20001010 D _ZN17STM32_AITC_Driver10s_IsrTableE
0803f088 T _ZN17STM32_AITC_Driver14IRQToIRQVectorEj
0803f0a4 T _ZN17STM32_AITC_Driver14STUB_ISRVectorEPv
0803efd8 T _ZN17STM32_AITC_Driver15InterruptEnableEj
0803f030 T _ZN17STM32_AITC_Driver16InterruptDisableEj
0803dcbc T _ZN17STM32_AITC_Driver17ActivateInterruptEjjPFvPvES0_
0803dd30 T _ZN17STM32_AITC_Driver19DeactivateInterruptEj
0802a548 T _ZN17Timer16Bit_Driver10InitializeEjjjPFvPvES0_
0802a54c T _ZN17Timer16Bit_Driver11GetMaxTicksEv
080250a4 T _ZN18BlockStorageStream10InitializeEj
0802503c T _ZN18BlockStorageStream10InitializeEjP18BlockStorageDevice
08024ef0 T _ZN18BlockStorageStream10NextStreamEv
08024c20 T _ZN18BlockStorageStream10PrevStreamEv
08024c18 T _ZN18BlockStorageStream14CurrentAddressEv
08025200 T _ZN18BlockStorageStream14ReadIntoBufferEPhj
08025140 T _ZN18BlockStorageStream4ReadEPPhj
08025338 T _ZN18BlockStorageStream4SeekEiNS_10SeekOriginE
080253b4 T _ZN18BlockStorageStream5EraseEj
080250b0 T _ZN18BlockStorageStream5WriteEPhj
0802523c T _ZN18BlockStorageStream8IsErasedEj
080370d4 T _ZN18BlockStorageUpdate10InitializeEv
080370a4 T _ZN18BlockStorageUpdate12GetEraseSizeEi
080373a4 T _ZN18BlockStorageUpdate13GetFreeHandleEv
080373c8 T _ZN18BlockStorageUpdate15InitializeFilesEj
08037090 T _ZN18BlockStorageUpdate32BlockStorageUpdate_RebootHandlerEv
08037558 T _ZN18BlockStorageUpdate4OpenEitt
08037138 T _ZN18BlockStorageUpdate4ReadEiiPhi
080370a0 T _ZN18BlockStorageUpdate5CloseEi
08037344 T _ZN18BlockStorageUpdate5WriteEiiPhi
08037684 T _ZN18BlockStorageUpdate6CreateER14MFUpdateHeaderj
08037204 T _ZN18BlockStorageUpdate6DeleteEitt
080375fc T _ZN18BlockStorageUpdate8GetFilesEtPiS0_
080370ec T _ZN18BlockStorageUpdate8IsErasedEiii
08037198 T _ZN18BlockStorageUpdate9GetHeaderEiP14MFUpdateHeader
08043148 T _ZN18CLR_RT_HeapCluster13ExtractBlocksEjjj
0804337c T _ZN18CLR_RT_HeapCluster13InsertInOrderEP21CLR_RT_HeapBlock_Nodej
080431e0 T _ZN18CLR_RT_HeapCluster13RecoverFromGCEv
08043264 T _ZN18CLR_RT_HeapCluster22HeapCluster_InitializeEjj
0803be40 T _ZN18STM32F10x_blDriver10EraseBlockEPvj
0803be08 T _ZN18STM32F10x_blDriver13GetDeviceInfoEPv
0803be18 T _ZN18STM32F10x_blDriver13IsBlockErasedEPvjj
0803be2c T _ZN18STM32F10x_blDriver13SetPowerStateEPvj
0803be00 T _ZN18STM32F10x_blDriver16InitializeDeviceEPv
0803be10 T _ZN18STM32F10x_blDriver17GetSectorMetadataEPvjP14SectorMetadata
0803be14 T _ZN18STM32F10x_blDriver17SetSectorMetadataEPvjP14SectorMetadata
0803be38 T _ZN18STM32F10x_blDriver18MaxBlockErase_uSecEPv
0803be04 T _ZN18STM32F10x_blDriver18UninitializeDeviceEPv
0803be30 T _ZN18STM32F10x_blDriver19MaxSectorWrite_uSecEPv
0803be0c T _ZN18STM32F10x_blDriver4ReadEPvjjPh
0803be60 T _ZN18STM32F10x_blDriver5WriteEPvjjPhj
0803bf88 T _ZN18STM32F10x_blDriver6MemsetEPvjhj
0803feac T _ZN18VirtualTimerMapper10InitializeEt
08040140 T _ZN18VirtualTimerMapper10StartTimerEh
0803ffc0 T _ZN18VirtualTimerMapper11ChangeTimerEhjjj
08040064 T _ZN18VirtualTimerMapper12GetNextAlarmEv
080400d0 T _ZN18VirtualTimerMapper23SetAlarmForTheNextTimerEv
0803fef0 T _ZN18VirtualTimerMapper8SetTimerEhjjjjPFvPvE
0804001c T _ZN18VirtualTimerMapper9StopTimerEh
08045318 T _ZN19CLR_RECORD_ASSEMBLY19ComputeAssemblyHashEPKcRK18CLR_RECORD_VERSION
08067d70 T _ZN19DATASTORE_AddrTable11removeEntryEj
08067bfc T _ZN19DATASTORE_AddrTable13getCurrentLocEj
08067c30 T _ZN19DATASTORE_AddrTable13getCurrentLocEjRi
08067c6c T _ZN19DATASTORE_AddrTable13getCurrentLocEPvS0_S0_
08067cfc T _ZN19DATASTORE_AddrTable13getCurrentLocEPvS0_S0_R4PACK
08067d1c T _ZN19DATASTORE_AddrTable15getMaxWriteSizeEPv
08067dd0 T _ZN19DATASTORE_AddrTable16sortAddressTableEv
08067da4 T _ZN19DATASTORE_AddrTable17eraseAddressTableEv
08067d3c T _ZN19DATASTORE_AddrTable17getAllocationSizeEj
08067e68 T _ZN19DATASTORE_AddrTable21updateCurrentLocationEjPv
08067b3c T _ZN19DATASTORE_AddrTable6searchEPvP4PACK
08067c90 T _ZN19DATASTORE_AddrTable8addEntryEP4PACK
08037814 T _ZN19UpdateValidationCRC11AuthCommandEP8MFUpdatejPhiS2_Ri
08037840 T _ZN19UpdateValidationCRC12AuthenticateEP8MFUpdatePhi
08037844 T _ZN19UpdateValidationCRC14ValidatePacketEP8MFUpdatePhiS2_i
08037878 T _ZN19UpdateValidationCRC14ValidateUpdateEP8MFUpdatePhi
08041e00 T _ZN20CLR_RT_DblLinkedList10NumOfNodesEv
08043a38 T _ZN20CLR_RT_DblLinkedList21DblLinkedList_ReleaseEv
08041d10 T _ZN20CLR_RT_DblLinkedList24DblLinkedList_InitializeEv
08041dcc T _ZN20CLR_RT_DblLinkedList25DblLinkedList_PushToCacheEv
08041e10 T _ZN20CLR_RT_DblLinkedList8RelocateEv
080416ec T _ZN20CLR_RT_ProtectFromGC10InitializeEPPvPFvS0_E
080416bc T _ZN20CLR_RT_ProtectFromGC10InitializeER16CLR_RT_HeapBlock
08041728 T _ZN20CLR_RT_ProtectFromGC6InvokeEv
08041708 T _ZN20CLR_RT_ProtectFromGC7CleanupEv
20005af0 B _ZN20CLR_RT_ProtectFromGC7s_firstE
0804174c T _ZN20CLR_RT_ProtectFromGC9InvokeAllEv
080442e0 T _ZN20CLR_RT_UnicodeHelper13ConvertToUTF8Eib
0804410c T _ZN20CLR_RT_UnicodeHelper15ConvertFromUTF8Eibi
080440a0 T _ZN20CLR_RT_UnicodeHelper18CountNumberOfBytesEi
08043fb4 T _ZN20CLR_RT_UnicodeHelper23CountNumberOfCharactersEi
08037bbc T _ZN20DataReceptionHandler10InitializeEhh
08037de0 T _ZN20DataReceptionHandler11SendDataACKEv
080380d4 T _ZN20DataReceptionHandler12ExecuteEventEv
08038330 T _ZN20DataReceptionHandler12FailsafeStopEv
08037d58 T _ZN20DataReceptionHandler14SendACKHandlerEv
080380a0 T _ZN20DataReceptionHandler16PostExecuteEventEv
08037f4c T _ZN20DataReceptionHandler20HandleEndofReceptionEt
08037cc0 T _ZN20DataReceptionHandler20HandleRadioInterruptEv
080378e4 T _ZN20DataReceptionHandler32UpdateSeedandCalculateWakeupSlotERyRtRKtRKjRKy
080379ac T _ZN20DataReceptionHandler9NextEventEv
0803ab6c T _ZN20FileSystemVolumeList10InitializeEv
0803ab70 T _ZN20FileSystemVolumeList17InitializeVolumesEv
0803ab74 T _ZN20FileSystemVolumeList19UninitializeVolumesEv
0803bac4 T _ZN20I2C_HAL_XACTION_UNIT10InitializeEPhS0_jj
0803cb74 T _ZN20STM32F10x_I2C_Driver10InitializeE6I2CBus
0803caf8 T _ZN20STM32F10x_I2C_Driver11XActionStopEv
0803cd2c T _ZN20STM32F10x_I2C_Driver12UnInitializeEv
0803ca60 T _ZN20STM32F10x_I2C_Driver12XActionStartEP15I2C_HAL_XACTIONb
2000568c B _ZN20STM32F10x_I2C_Driver17IsInitializedI2C1E
20005690 B _ZN20STM32F10x_I2C_Driver17IsInitializedI2C2E
0804a72c T _ZN21CLR_RT_HeapBlock_Lock11ChangeOwnerEv
0804a800 T _ZN21CLR_RT_HeapBlock_Lock12DestroyOwnerEP16CLR_RT_SubThread
0804a5c8 T _ZN21CLR_RT_HeapBlock_Lock14CreateInstanceERPS_P13CLR_RT_ThreadR16CLR_RT_HeapBlock
08040750 T _ZN21CLR_RT_HeapBlock_Lock14Relocate_OwnerEv
0804a838 T _ZN21CLR_RT_HeapBlock_Lock18DecrementOwnershipEPS_P16CLR_RT_SubThread
0804a674 T _ZN21CLR_RT_HeapBlock_Lock18IncrementOwnershipEPS_P16CLR_RT_SubThreadRKxb
08042af4 T _ZN21CLR_RT_HeapBlock_Lock8RelocateEv
08041ba8 T _ZN21CLR_RT_HeapBlock_Node8RelocateEv
08045218 T _ZN21CLR_RT_TypeDescriptor14ConvertToArrayEv
08045238 T _ZN21CLR_RT_TypeDescriptor14GetElementTypeERS_
08045160 T _ZN21CLR_RT_TypeDescriptor18InitializeFromTypeERK20CLR_RT_TypeDef_Index
080457a0 T _ZN21CLR_RT_TypeDescriptor20InitializeFromObjectERK16CLR_RT_HeapBlock
0804510c T _ZN21CLR_RT_TypeDescriptor22InitializeFromDataTypeE12CLR_DataType
08046bb0 T _ZN21CLR_RT_TypeDescriptor22InitializeFromTypeSpecERK21CLR_RT_TypeSpec_Index
08045270 T _ZN21CLR_RT_TypeDescriptor24ExtractObjectAndDataTypeERP16CLR_RT_HeapBlockR12CLR_DataType
0804652c T _ZN21CLR_RT_TypeDescriptor24InitializeFromReflectionERK26CLR_RT_ReflectionDef_Index
080458fc T _ZN21CLR_RT_TypeDescriptor26ExtractTypeIndexFromObjectERK16CLR_RT_HeapBlockR20CLR_RT_TypeDef_Index
08046cb8 T _ZN21CLR_RT_TypeDescriptor29InitializeFromFieldDefinitionERK24CLR_RT_FieldDef_Instance
08046b6c T _ZN21CLR_RT_TypeDescriptor29InitializeFromSignatureParserER22CLR_RT_SignatureParser
08060b4c T _ZN21Samraksh_Emote_Update10InitializeEv
200015b2 D _ZN21Samraksh_Emote_Update10s_destAddrE
20007a34 B _ZN21Samraksh_Emote_Update10s_fRadioOnE
08061340 T _ZN21Samraksh_Emote_Update11AuthCommandEP10WP_MessagePv
080611b0 T _ZN21Samraksh_Emote_Update11SendInstallEjt
08061464 T _ZN21Samraksh_Emote_Update12AuthenticateEP10WP_MessagePv
08060c60 T _ZN21Samraksh_Emote_Update13InitializeMacEv
080610d8 T _ZN21Samraksh_Emote_Update13SendAddPacketEjtj
08060c04 T _ZN21Samraksh_Emote_Update14CreateInstanceEv
08061550 T _ZN21Samraksh_Emote_Update14GetMissingPktsEP10WP_MessagePv
20007a38 B _ZN21Samraksh_Emote_Update14s_fUseWpPacketE
2000775c B _ZN21Samraksh_Emote_Update14s_lastUsbOwnerE
08060fa4 T _ZN21Samraksh_Emote_Update15SendAuthCommandEjt
20007a48 B _ZN21Samraksh_Emote_Update16s_lastUsbMessageE
08061010 T _ZN21Samraksh_Emote_Update16SendAuthenticateEjt
08060e2c T _ZN21Samraksh_Emote_Update16UpdateCompletionEPv
200079c8 B _ZN21Samraksh_Emote_Update17s_destMissingPktsE
0806191c T _ZN21Samraksh_Emote_Update18App_ProcessPayloadEPvP10WP_Message
200079c0 B _ZN21Samraksh_Emote_Update18s_fBaseStationModeE
20007990 B _ZN21Samraksh_Emote_Update18s_UpdateCompletionE
08061078 T _ZN21Samraksh_Emote_Update18SendGetMissingPktsEjt
08060c2c T _ZN21Samraksh_Emote_Update20InitializeMacHandlerEv
20007a40 B _ZN21Samraksh_Emote_Update20s_fPublishUpdateModeE
08061e20 T _ZN21Samraksh_Emote_Update21Receive_IEEE_802_15_4EPvt
20007a30 B _ZN21Samraksh_Emote_Update21s_UpdateCompletionArgE
20007a3c B _ZN21Samraksh_Emote_Update24s_UpdaterProgressHandlerE
080608ec T _ZN21Samraksh_Emote_Update28Wireless_Phy_TransmitMessageEPvPK10WP_Message
08060da0 T _ZN21Samraksh_Emote_Update29InitializeDriversAfterInstallEv
08060860 T _ZN21Samraksh_Emote_Update29Wireless_Phy_ReadReceiveBytesEPvRPhRj
08060dbc T _ZN21Samraksh_Emote_Update32UnInitializeDriversBeforeInstallEv
0806126c T _ZN21Samraksh_Emote_Update5StartEP10WP_MessagePv
080617b0 T _ZN21Samraksh_Emote_Update7InstallEP10WP_MessagePv
08061d70 T _ZN21Samraksh_Emote_Update7ReceiveEPvt
08061664 T _ZN21Samraksh_Emote_Update9AddPacketEP10WP_MessagePv
200079c4 B _ZN21Samraksh_Emote_Update9s_RadioIDE
08060eec T _ZN21Samraksh_Emote_Update9SendStartEjt
0805732c T _ZN22CLR_RT_BinaryFormatter11DeserializeER16CLR_RT_HeapBlockS1_PS0_Pjj
08057324 T _ZN22CLR_RT_BinaryFormatter9SerializeER16CLR_RT_HeapBlockS1_PS0_j
08046c48 T _ZN22CLR_RT_ExecutionEngine10CastToTypeER16CLR_RT_HeapBlockjP15CLR_RT_Assemblyb
0804a6f8 T _ZN22CLR_RT_ExecutionEngine10LockObjectER16CLR_RT_HeapBlockP16CLR_RT_SubThreadRKxb
0804cdc8 T _ZN22CLR_RT_ExecutionEngine10SpawnTimerEv
08042fcc T _ZN22CLR_RT_ExecutionEngine10UpdateTimeEv
08040dcc T _ZN22CLR_RT_ExecutionEngine10WaitEventsEP13CLR_RT_ThreadRKxjRb
0804ce1c T _ZN22CLR_RT_ExecutionEngine11CheckTimersERx
080491b0 T _ZN22CLR_RT_ExecutionEngine11CloneObjectER16CLR_RT_HeapBlockRKS0_
08040e6c T _ZN22CLR_RT_ExecutionEngine11InitTimeoutERxi
08040e28 T _ZN22CLR_RT_ExecutionEngine11InitTimeoutERxRKx
0804b320 T _ZN22CLR_RT_ExecutionEngine12CheckThreadsERxR20CLR_RT_DblLinkedList
08043024 T _ZN22CLR_RT_ExecutionEngine12DebuggerLoopEv
08046bdc T _ZN22CLR_RT_ExecutionEngine12IsInstanceOfER16CLR_RT_HeapBlockP15CLR_RT_Assemblyj
080468d4 T _ZN22CLR_RT_ExecutionEngine12IsInstanceOfER16CLR_RT_HeapBlockRK20CLR_RT_TypeDef_Index
0804679c T _ZN22CLR_RT_ExecutionEngine12IsInstanceOfER21CLR_RT_TypeDescriptorS1_
080468a0 T _ZN22CLR_RT_ExecutionEngine12IsInstanceOfERK20CLR_RT_TypeDef_IndexS2_
0804ce84 T _ZN22CLR_RT_ExecutionEngine12ProcessTimerEv
0804ae98 T _ZN22CLR_RT_ExecutionEngine12SignalEventsEj
0804ae4c T _ZN22CLR_RT_ExecutionEngine12SignalEventsER20CLR_RT_DblLinkedListj
0804a898 T _ZN22CLR_RT_ExecutionEngine12UnlockObjectER16CLR_RT_HeapBlockP16CLR_RT_SubThread
080432dc T _ZN22CLR_RT_ExecutionEngine13AllocateHeapsEv
080494f4 T _ZN22CLR_RT_ExecutionEngine13CopyValueTypeEP16CLR_RT_HeapBlockPKS0_
08040d6c T _ZN22CLR_RT_ExecutionEngine13IsTimeExpiredERKxRxb
08040b24 T _ZN22CLR_RT_ExecutionEngine13StartHardwareEv
0804d5b0 T _ZN22CLR_RT_ExecutionEngine14CreateInstanceEv
0804b30c T _ZN22CLR_RT_ExecutionEngine14DeleteInstanceEv
08042350 T _ZN22CLR_RT_ExecutionEngine14FindLockObjectER16CLR_RT_HeapBlock
08042300 T _ZN22CLR_RT_ExecutionEngine14FindLockObjectER20CLR_RT_DblLinkedListR16CLR_RT_HeapBlock
20005ad8 B _ZN22CLR_RT_ExecutionEngine14s_compensationE
0804d198 T _ZN22CLR_RT_ExecutionEngine14SpawnFinalizerEv
0804b130 T _ZN22CLR_RT_ExecutionEngine15AbortAllThreadsER20CLR_RT_DblLinkedList
08040d38 T _ZN22CLR_RT_ExecutionEngine15GetNextThreadIdEv
08040d48 T _ZN22CLR_RT_ExecutionEngine15ProcessHardwareEv
0804ad0c T _ZN22CLR_RT_ExecutionEngine15PutInProperListEP13CLR_RT_Thread
0804d234 T _ZN22CLR_RT_ExecutionEngine15ScheduleThreadsEi
0804b1ac T _ZN22CLR_RT_ExecutionEngine15UnloadAppDomainEP16CLR_RT_AppDomainP13CLR_RT_Thread
080416a0 T _ZN22CLR_RT_ExecutionEngine15WaitForActivityEjjx
0804cf48 T _ZN22CLR_RT_ExecutionEngine15WaitForActivityEv
08043058 T _ZN22CLR_RT_ExecutionEngine15WaitForDebuggerEv
08048ddc T _ZN22CLR_RT_ExecutionEngine16InitializeLocalsEP16CLR_RT_HeapBlockP15CLR_RT_AssemblyPK20CLR_RECORD_METHODDEF
08040ee4 T _ZN22CLR_RT_ExecutionEngine16StopOnBreakpointERN16CLR_DBG_Commands33Debugging_Execution_BreakpointDefEP13CLR_RT_Thread
08040f84 T _ZN22CLR_RT_ExecutionEngine16StopOnBreakpointERN16CLR_DBG_Commands33Debugging_Execution_BreakpointDefEP17CLR_RT_StackFramePKh
08041640 T _ZN22CLR_RT_ExecutionEngine16WaitSystemEventsEjjx
08045624 T _ZN22CLR_RT_ExecutionEngine17AccessStaticFieldERK21CLR_RT_FieldDef_Index
08047790 T _ZN22CLR_RT_ExecutionEngine17ExtractHeapBlocksER20CLR_RT_DblLinkedListjjj
0804b23c T _ZN22CLR_RT_ExecutionEngine17ReleaseAllThreadsER20CLR_RT_DblLinkedList
0804b0c4 T _ZN22CLR_RT_ExecutionEngine18DeleteLockRequestsEP13CLR_RT_ThreadP16CLR_RT_SubThread
0804b064 T _ZN22CLR_RT_ExecutionEngine18DeleteLockRequestsEP13CLR_RT_ThreadP16CLR_RT_SubThreadR20CLR_RT_DblLinkedList
0804cd9c T _ZN22CLR_RT_ExecutionEngine18EnsureSystemThreadERP13CLR_RT_Threadi
08048294 T _ZN22CLR_RT_ExecutionEngine18InstallBreakpointsEPN16CLR_DBG_Commands33Debugging_Execution_BreakpointDefEj
08049188 T _ZN22CLR_RT_ExecutionEngine18NewObjectFromIndexER16CLR_RT_HeapBlockRK20CLR_RT_TypeDef_Index
08041638 T _ZN22CLR_RT_ExecutionEngine19GetCurrentAppDomainEv
08048d70 T _ZN22CLR_RT_ExecutionEngine19InitializeReferenceER16CLR_RT_HeapBlockPK19CLR_RECORD_FIELDDEFP15CLR_RT_Assembly
08048cf8 T _ZN22CLR_RT_ExecutionEngine19InitializeReferenceER16CLR_RT_HeapBlockR22CLR_RT_SignatureParser
0804162c T _ZN22CLR_RT_ExecutionEngine19SetCurrentAppDomainEP16CLR_RT_AppDomain
080415a4 T _ZN22CLR_RT_ExecutionEngine20Breakpoint_ExceptionEP17CLR_RT_StackFramejPKh
08040d5c T _ZN22CLR_RT_ExecutionEngine20InvalidateTimerCacheEv
080436b4 T _ZN22CLR_RT_ExecutionEngine21PerformHeapCompactionEv
08040c38 T _ZN22CLR_RT_ExecutionEngine21RetrieveCurrentMethodERjS0_
0804aeb8 T _ZN22CLR_RT_ExecutionEngine21TryToUnloadAppDomainsEv
080447e8 T _ZN22CLR_RT_ExecutionEngine22AdjustExecutionCounterER20CLR_RT_DblLinkedListi
08040ca8 T _ZN22CLR_RT_ExecutionEngine22InsertThreadRoundRobinER20CLR_RT_DblLinkedListP13CLR_RT_Thread
0804cff0 T _ZN22CLR_RT_ExecutionEngine22SpawnStaticConstructorERP13CLR_RT_Thread
0804100c T _ZN22CLR_RT_ExecutionEngine23Breakpoint_System_EventERN16CLR_DBG_Commands33Debugging_Execution_BreakpointDefEtP13CLR_RT_ThreadP17CLR_RT_StackFramePKh
08040fbc T _ZN22CLR_RT_ExecutionEngine23DequeueActiveBreakpointERN16CLR_DBG_Commands33Debugging_Execution_BreakpointDefE
0804b268 T _ZN22CLR_RT_ExecutionEngine23ExecutionEngine_CleanupEv
08047748 T _ZN22CLR_RT_ExecutionEngine24PerformGarbageCollectionEv
0804124c T _ZN22CLR_RT_ExecutionEngine25Breakpoint_StackFrame_PopEP17CLR_RT_StackFrameb
08041220 T _ZN22CLR_RT_ExecutionEngine25Breakpoint_Thread_CreatedEP13CLR_RT_Thread
08047890 T _ZN22CLR_RT_ExecutionEngine25ExtractHeapBlocksForArrayER23CLR_RT_TypeDef_InstancejRK26CLR_RT_ReflectionDef_Index
0804132c T _ZN22CLR_RT_ExecutionEngine26Breakpoint_StackFrame_HardEP17CLR_RT_StackFramePKh
080413c8 T _ZN22CLR_RT_ExecutionEngine26Breakpoint_StackFrame_PushEP17CLR_RT_StackFramej
080414d0 T _ZN22CLR_RT_ExecutionEngine26Breakpoint_StackFrame_StepEP17CLR_RT_StackFramePKh
080410dc T _ZN22CLR_RT_ExecutionEngine26Breakpoint_Threads_PrepareER20CLR_RT_DblLinkedList
08040bc0 T _ZN22CLR_RT_ExecutionEngine26ExecutionConstraint_ResumeEv
0804d4a0 T _ZN22CLR_RT_ExecutionEngine26ExecutionEngine_InitializeEv
08048070 T _ZN22CLR_RT_ExecutionEngine26ExtractHeapBlocksForEventsEjjj
080479a0 T _ZN22CLR_RT_ExecutionEngine26ExtractHeapBytesForObjectsEjjj
0804157c T _ZN22CLR_RT_ExecutionEngine27Breakpoint_StackFrame_BreakEP17CLR_RT_StackFrame
08040b9c T _ZN22CLR_RT_ExecutionEngine27ExecutionConstraint_SuspendEv
08047964 T _ZN22CLR_RT_ExecutionEngine27ExtractHeapBlocksForObjectsEjjj
08044fe0 T _ZN22CLR_RT_ExecutionEngine27SetDebuggingInfoBreakpointsEb
08041090 T _ZN22CLR_RT_ExecutionEngine28Breakpoint_Assemblies_LoadedEv
080411e4 T _ZN22CLR_RT_ExecutionEngine28Breakpoint_Thread_TerminatedEP13CLR_RT_Thread
0804d224 T _ZN22CLR_RT_ExecutionEngine28FinalizerTerminationCallbackEPv
0804c20c T _ZN22CLR_RT_ExecutionEngine28SpawnStaticConstructorHelperEP16CLR_RT_AppDomainP24CLR_RT_AppDomainAssemblyRK22CLR_RT_MethodDef_Index
080415d0 T _ZN22CLR_RT_ExecutionEngine29Breakpoint_Exception_UncaughtEP13CLR_RT_Thread
08041600 T _ZN22CLR_RT_ExecutionEngine32Breakpoint_Exception_InterceptedEP17CLR_RT_StackFrame
0804b150 T _ZN22CLR_RT_ExecutionEngine32PrepareThreadsForAppDomainUnloadEP16CLR_RT_AppDomainR20CLR_RT_DblLinkedList
0804d0e4 T _ZN22CLR_RT_ExecutionEngine36StaticConstructorTerminationCallbackEPv
08040c00 T _ZN22CLR_RT_ExecutionEngine36TryToUnloadAppDomains_Helper_ThreadsER20CLR_RT_DblLinkedList
08047918 T _ZN22CLR_RT_ExecutionEngine37ExtractHeapBlocksForClassOrValueTypesEjjRK20CLR_RT_TypeDef_Indexj
080456b8 T _ZN22CLR_RT_ExecutionEngine39TryToUnloadAppDomains_Helper_FinalizersER20CLR_RT_DblLinkedListb
08040dac T _ZN22CLR_RT_ExecutionEngine5SleepEP13CLR_RT_ThreadRKx
08040b34 T _ZN22CLR_RT_ExecutionEngine6RebootEb
0804d800 T _ZN22CLR_RT_ExecutionEngine7ExecuteEPwi
08041e24 T _ZN22CLR_RT_ExecutionEngine8RelocateEv
08040b80 T _ZN22CLR_RT_ExecutionEngine9GetUptimeEv
08048b60 T _ZN22CLR_RT_ExecutionEngine9NewObjectER16CLR_RT_HeapBlockRK23CLR_RT_TypeDef_Instance
0804cd50 T _ZN22CLR_RT_ExecutionEngine9NewThreadERP13CLR_RT_ThreadP25CLR_RT_HeapBlock_Delegateiij
08042b84 T _ZN22CLR_RT_HeapBlock_Array10CheckRangeEiii
08049fdc T _ZN22CLR_RT_HeapBlock_Array13ClearElementsEii
0804a448 T _ZN22CLR_RT_HeapBlock_Array14CreateInstanceER16CLR_RT_HeapBlockjP15CLR_RT_Assemblyj
0804a104 T _ZN22CLR_RT_HeapBlock_Array14CreateInstanceER16CLR_RT_HeapBlockjRK20CLR_RT_TypeDef_Index
0804a060 T _ZN22CLR_RT_HeapBlock_Array14CreateInstanceER16CLR_RT_HeapBlockjRK26CLR_RT_ReflectionDef_Index
08049764 T _ZN22CLR_RT_HeapBlock_Array4CopyEPS_iS0_ii
08046450 T _ZN22CLR_RT_HeapBlock_Array7IndexOfEPS_R16CLR_RT_HeapBlockiibRi
08041ab0 T _ZN22CLR_RT_HeapBlock_Array8RelocateEv
08040960 T _ZN22CLR_RT_HeapBlock_Queue14ObjArrayMemcpyEP22CLR_RT_HeapBlock_ArrayiS1_ii
08042d78 T _ZN22CLR_RT_HeapBlock_Queue4PeekERP16CLR_RT_HeapBlock
0804a4c0 T _ZN22CLR_RT_HeapBlock_Queue5ClearEv
08042da0 T _ZN22CLR_RT_HeapBlock_Queue6CopyToEP22CLR_RT_HeapBlock_Arrayi
08042d2c T _ZN22CLR_RT_HeapBlock_Queue7DequeueERP16CLR_RT_HeapBlock
0804a2ec T _ZN22CLR_RT_HeapBlock_Queue7EnqueueEP16CLR_RT_HeapBlock
08042e20 T _ZN22CLR_RT_HeapBlock_Stack3PopERP16CLR_RT_HeapBlock
08042e60 T _ZN22CLR_RT_HeapBlock_Stack4PeekERP16CLR_RT_HeapBlock
0804a39c T _ZN22CLR_RT_HeapBlock_Stack4PushEP16CLR_RT_HeapBlock
0804a51c T _ZN22CLR_RT_HeapBlock_Stack5ClearEv
08042ea4 T _ZN22CLR_RT_HeapBlock_Timer10RescheduleEv
0804c2b0 T _ZN22CLR_RT_HeapBlock_Timer10SpawnTimerEP13CLR_RT_Thread
08043b2c T _ZN22CLR_RT_HeapBlock_Timer13CheckDisposedER17CLR_RT_StackFrame
08043be0 T _ZN22CLR_RT_HeapBlock_Timer13RecoverFromGCEv
0804ba74 T _ZN22CLR_RT_HeapBlock_Timer14CreateInstanceEjR16CLR_RT_HeapBlockS1_
0804bb14 T _ZN22CLR_RT_HeapBlock_Timer15ConfigureObjectER17CLR_RT_StackFramej
08043b14 T _ZN22CLR_RT_HeapBlock_Timer15ExtractInstanceER16CLR_RT_HeapBlockRPS_
08042f1c T _ZN22CLR_RT_HeapBlock_Timer21AdjustNextFixedExpireERK10SYSTEMTIMEb
0804cfd4 T _ZN22CLR_RT_HeapBlock_Timer25ThreadTerminationCallbackEPv
08042e88 T _ZN22CLR_RT_HeapBlock_Timer7TriggerEv
08044a04 T _ZN22CLR_RT_SignatureParser18Initialize_ObjectsEP16CLR_RT_HeapBlockib
080449a0 T _ZN22CLR_RT_SignatureParser19Initialize_FieldDefEP15CLR_RT_AssemblyPK19CLR_RECORD_FIELDDEF
0804498c T _ZN22CLR_RT_SignatureParser19Initialize_FieldDefEP15CLR_RT_AssemblyPKh
08044944 T _ZN22CLR_RT_SignatureParser19Initialize_TypeSpecEP15CLR_RT_AssemblyPK19CLR_RECORD_TYPESPEC
08044934 T _ZN22CLR_RT_SignatureParser19Initialize_TypeSpecEP15CLR_RT_AssemblyPKh
08044958 T _ZN22CLR_RT_SignatureParser21Initialize_InterfacesEP15CLR_RT_AssemblyPK18CLR_RECORD_TYPEDEF
080449e4 T _ZN22CLR_RT_SignatureParser23Initialize_MethodLocalsEP15CLR_RT_AssemblyPK20CLR_RECORD_METHODDEF
080449d0 T _ZN22CLR_RT_SignatureParser26Initialize_MethodSignatureEP15CLR_RT_AssemblyPK20CLR_RECORD_METHODDEF
080449b4 T _ZN22CLR_RT_SignatureParser26Initialize_MethodSignatureEP15CLR_RT_AssemblyPKh
08046564 T _ZN22CLR_RT_SignatureParser7AdvanceERNS_7ElementE
0803c0c8 T _ZN22STM32F10x_blDriver_nor10EraseBlockEPvj
0803bff8 T _ZN22STM32F10x_blDriver_nor13GetDeviceInfoEPv
0803c0a8 T _ZN22STM32F10x_blDriver_nor13IsBlockErasedEPvjj
0803c004 T _ZN22STM32F10x_blDriver_nor13SetPowerStateEPvj
0803c018 T _ZN22STM32F10x_blDriver_nor16InitializeDeviceEPv
0803bffc T _ZN22STM32F10x_blDriver_nor17GetSectorMetadataEPvjP14SectorMetadata
0803c000 T _ZN22STM32F10x_blDriver_nor17SetSectorMetadataEPvjP14SectorMetadata
0803c010 T _ZN22STM32F10x_blDriver_nor18MaxBlockErase_uSecEPv
0803bff4 T _ZN22STM32F10x_blDriver_nor18UninitializeDeviceEPv
0803c008 T _ZN22STM32F10x_blDriver_nor19MaxSectorWrite_uSecEPv
0803c028 T _ZN22STM32F10x_blDriver_nor4ReadEPvjjPh
0803c048 T _ZN22STM32F10x_blDriver_nor5WriteEPvjjPhj
0803c07c T _ZN22STM32F10x_blDriver_nor6MemsetEPvjhj
08045368 T _ZN23CLR_RT_ExceptionHandler13ConvertFromEHERK25CLR_RT_MethodDef_InstancePKhPK13CLR_RECORD_EH
080418fc T _ZN23CLR_RT_GarbageCollector11Thread_MarkEP13CLR_RT_Thread
080419ec T _ZN23CLR_RT_GarbageCollector11Thread_MarkER20CLR_RT_DblLinkedList
0804341c T _ZN23CLR_RT_GarbageCollector12Heap_CompactEv
080418d4 T _ZN23CLR_RT_GarbageCollector13Assembly_MarkEv
08041a54 T _ZN23CLR_RT_GarbageCollector13Heap_RelocateEP16CLR_RT_HeapBlockj
08041ae8 T _ZN23CLR_RT_GarbageCollector13Heap_RelocateEPPv
08041ed4 T _ZN23CLR_RT_GarbageCollector13Heap_RelocateEv
08041884 T _ZN23CLR_RT_GarbageCollector14AppDomain_MarkEv
0804367c T _ZN23CLR_RT_GarbageCollector17ExecuteCompactionEv
08041e50 T _ZN23CLR_RT_GarbageCollector18Heap_Relocate_PassEPFbPPvE
08047484 T _ZN23CLR_RT_GarbageCollector19CheckMemoryPressureEv
080459f4 T _ZN23CLR_RT_GarbageCollector19RecoverEventsFromGCEv
08041a48 T _ZN23CLR_RT_GarbageCollector21Heap_Relocate_PrepareEPNS_16RelocationRegionEj
0804759c T _ZN23CLR_RT_GarbageCollector24ExecuteGarbageCollectionEv
08041a04 T _ZN23CLR_RT_GarbageCollector28Heap_ComputeAliveVsDeadRatioEv
08048588 T _ZN23CLR_RT_GarbageCollector38ComputeReachabilityGraphForSingleBlockEPP16CLR_RT_HeapBlock
080482f0 T _ZN23CLR_RT_GarbageCollector41ComputeReachabilityGraphForMultipleBlocksEP16CLR_RT_HeapBlockj
08043870 T _ZN23CLR_RT_GarbageCollector4MarkEv
08045a84 T _ZN23CLR_RT_GarbageCollector5SweepEv
08041768 T _ZN23CLR_RT_GarbageCollector8MarkSlowEv
080417d0 T _ZN23CLR_RT_GarbageCollector8MarkWeakEv
08041cf4 T _ZN23CLR_RT_GarbageCollector9MarkStack10InitializeEPNS_16MarkStackElementEj
08047cf0 T _ZN23CLR_RT_HeapBlock_String14CreateInstanceER16CLR_RT_HeapBlockj
08047e1c T _ZN23CLR_RT_HeapBlock_String14CreateInstanceER16CLR_RT_HeapBlockjP15CLR_RT_Assembly
08047d58 T _ZN23CLR_RT_HeapBlock_String14CreateInstanceER16CLR_RT_HeapBlockPKc
08047d30 T _ZN23CLR_RT_HeapBlock_String14CreateInstanceER16CLR_RT_HeapBlockPKcj
08047ddc T _ZN23CLR_RT_HeapBlock_String14CreateInstanceER16CLR_RT_HeapBlockPKcP15CLR_RT_Assembly
08047da0 T _ZN23CLR_RT_HeapBlock_String14CreateInstanceER16CLR_RT_HeapBlockPtj
08044df8 T _ZN23CLR_RT_TypeDef_Instance12ResolveTokenEjP15CLR_RT_Assembly
08044e68 T _ZN23CLR_RT_TypeDef_Instance14SwitchToParentEv
08044d64 T _ZN23CLR_RT_TypeDef_Instance19InitializeFromFieldERK24CLR_RT_FieldDef_Instance
08044ae8 T _ZN23CLR_RT_TypeDef_Instance19InitializeFromIndexERK20CLR_RT_TypeDef_Index
08044d1c T _ZN23CLR_RT_TypeDef_Instance20InitializeFromMethodERK25CLR_RT_MethodDef_Instance
080460e0 T _ZN23CLR_RT_TypeDef_Instance24InitializeFromReflectionERK26CLR_RT_ReflectionDef_IndexPj
08044d10 T _ZN23CLR_RT_TypeDef_Instance5ClearEv
0803855c T _ZN23DataTransmissionHandler10DropPacketEv
08038350 T _ZN23DataTransmissionHandler10InitializeEv
08039b80 T _ZN23DataTransmissionHandler12ExecuteEventEv
08039490 T _ZN23DataTransmissionHandler12FailsafeStopEv
08039360 T _ZN23DataTransmissionHandler14ReceiveDATAACKEt
08039098 T _ZN23DataTransmissionHandler14SendACKHandlerEP23IEEE802_15_4_Message_t2h
08038fa8 T _ZN23DataTransmissionHandler16PostExecuteEventEv
08039d54 T _ZN23DataTransmissionHandler18CalculateNextRXOppEt
080399f4 T _ZN23DataTransmissionHandler18ExecuteEventHelperEv
0803949c T _ZN23DataTransmissionHandler19SelectPacketForDestEt
080383c4 T _ZN23DataTransmissionHandler20CalculateNextTxMicroEt
08038464 T _ZN23DataTransmissionHandler20SendACKToUpperLayersEP23IEEE802_15_4_Message_t2t11NetOpStatush
08039c54 T _ZN23DataTransmissionHandler25UpdateNeighborsWakeUpSlotEth
08038f38 T _ZN23DataTransmissionHandler36SelectRetrySlotNumForNeighborBackOffEv
080399a8 T _ZN23DataTransmissionHandler4SendEv
08039e50 T _ZN23DataTransmissionHandler9NextEventEv
08028eb8 T _ZN23STM32F10x_AdvancedTimer10GetCounterEv
080291c8 T _ZN23STM32F10x_AdvancedTimer10InitializeEjPFvPvEj
08029360 T _ZN23STM32F10x_AdvancedTimer10SetCompareEy
0802948c T _ZN23STM32F10x_AdvancedTimer11GetMaxTicksEv
08028ef8 T _ZN23STM32F10x_AdvancedTimer12Get64CounterEv
08028f5c T _ZN23STM32F10x_AdvancedTimer8AddTicksEy
0804d5d4 T _ZN24CLR_RT_AppDomainAssembly14CreateInstanceEP16CLR_RT_AppDomainP15CLR_RT_AssemblyRPS_
08045970 T _ZN24CLR_RT_AppDomainAssembly15DestroyInstanceEv
0804d0f8 T _ZN24CLR_RT_AppDomainAssembly28AppDomainAssembly_InitializeEP16CLR_RT_AppDomainP15CLR_RT_Assembly
08041ad8 T _ZN24CLR_RT_AppDomainAssembly8RelocateEv
08044a18 T _ZN24CLR_RT_Assembly_Instance19InitializeFromIndexERK21CLR_RT_Assembly_Index
08044f40 T _ZN24CLR_RT_FieldDef_Instance12ResolveTokenEjP15CLR_RT_Assembly
08044ed4 T _ZN24CLR_RT_FieldDef_Instance19InitializeFromIndexERK21CLR_RT_FieldDef_Index
08044f34 T _ZN24CLR_RT_FieldDef_Instance5ClearEv
08044aa4 T _ZN24CLR_RT_TypeSpec_Instance12ResolveTokenEjP15CLR_RT_Assembly
08044a5c T _ZN24CLR_RT_TypeSpec_Instance19InitializeFromIndexERK21CLR_RT_TypeSpec_Index
08044a98 T _ZN24CLR_RT_TypeSpec_Instance5ClearEv
080367c0 T _ZN24VirtTimerHelperFunctions12AssignMapperEjRh
080367e4 T _ZN24VirtTimerHelperFunctions23HardwareVirtTimerMapperEhRh
080401c8 T _ZN24VirtTimerHelperFunctions23HardwareVirtTimerMapperEjRh
080479b8 T _ZN25CLR_RT_HeapBlock_Delegate14CreateInstanceER16CLR_RT_HeapBlockRK22CLR_RT_MethodDef_IndexP17CLR_RT_StackFrame
08042ae8 T _ZN25CLR_RT_HeapBlock_Delegate8RelocateEv
080245e0 T _ZN25CLR_RT_HeapBlock_EndPoint12FindEndPointERKNS_4PortE
080245dc T _ZN25CLR_RT_HeapBlock_EndPoint21HandlerMethod_CleanUpEv
080245d4 T _ZN25CLR_RT_HeapBlock_EndPoint24HandlerMethod_InitializeEv
080245d8 T _ZN25CLR_RT_HeapBlock_EndPoint27HandlerMethod_RecoverFromGCEv
080450a4 T _ZN25CLR_RT_MethodDef_Instance12ResolveTokenEjP15CLR_RT_Assembly
08044fa8 T _ZN25CLR_RT_MethodDef_Instance19InitializeFromIndexERK22CLR_RT_MethodDef_Index
08045098 T _ZN25CLR_RT_MethodDef_Instance5ClearEv
080401ec T _ZN25HAL_CONTINUATION_Extended26InitializeExtendedCallbackEPFvPvES0_
0804a124 T _ZN26CLR_RT_HeapBlock_ArrayList11SetCapacityEi
0804a184 T _ZN26CLR_RT_HeapBlock_ArrayList14EnsureCapacityEii
0804a1a4 T _ZN26CLR_RT_HeapBlock_ArrayList3AddEP16CLR_RT_HeapBlockRi
0804a4a0 T _ZN26CLR_RT_HeapBlock_ArrayList5ClearEv
0804a21c T _ZN26CLR_RT_HeapBlock_ArrayList6InsertEiP16CLR_RT_HeapBlock
08042bb0 T _ZN26CLR_RT_HeapBlock_ArrayList7GetItemEiRP16CLR_RT_HeapBlock
08042be0 T _ZN26CLR_RT_HeapBlock_ArrayList7SetItemEiP16CLR_RT_HeapBlock
08042c1c T _ZN26CLR_RT_HeapBlock_ArrayList8RemoveAtEi
08048a9c T _ZN26CLR_RT_HeapBlock_Finalizer14CreateInstanceEP16CLR_RT_HeapBlockRK23CLR_RT_TypeDef_Instance
08042cec T _ZN26CLR_RT_HeapBlock_Finalizer14RemoveInstanceEP16CLR_RT_HeapBlockR20CLR_RT_DblLinkedList
08042d0c T _ZN26CLR_RT_HeapBlock_Finalizer16SuppressFinalizeEP16CLR_RT_HeapBlock
08041b9c T _ZN26CLR_RT_HeapBlock_Finalizer8RelocateEv
08024360 T _ZN26CLR_RT_Persistence_Manager10InitializeEv
0802435c T _ZN26CLR_RT_Persistence_Manager12UninitializeEv
08024364 T _ZN26CLR_RT_Persistence_Manager15InvalidateEntryEP30CLR_RT_HeapBlock_WeakReference
0802436c T _ZN26CLR_RT_Persistence_Manager5FlushEv
08024368 T _ZN26CLR_RT_Persistence_Manager8RelocateEv
08044928 T _ZN26CLR_RT_ReflectionDef_Index18InitializeFromHashEj
08046510 T _ZN26CLR_RT_ReflectionDef_Index7ConvertER16CLR_RT_HeapBlockR23CLR_RT_TypeDef_InstancePj
08044a40 T _ZN26CLR_RT_ReflectionDef_Index7ConvertER16CLR_RT_HeapBlockR24CLR_RT_Assembly_Instance
08044f0c T _ZN26CLR_RT_ReflectionDef_Index7ConvertER16CLR_RT_HeapBlockR24CLR_RT_FieldDef_Instance
08045070 T _ZN26CLR_RT_ReflectionDef_Index7ConvertER16CLR_RT_HeapBlockR25CLR_RT_MethodDef_Instance
08044cf0 T _ZN26CLR_RT_ReflectionDef_Index7ConvertER16CLR_RT_HeapBlockRj
0804820c T _ZN27CLR_RT_HeapBlock_BinaryBlob14CreateInstanceER16CLR_RT_HeapBlockjPFvPS_ES4_j
08042ca4 T _ZN27CLR_RT_HeapBlock_BinaryBlob7ReleaseEb
080481d4 T _ZN27CLR_RT_HeapBlock_BinaryBlob8AllocateEjj
08040744 T _ZN27CLR_RT_HeapBlock_BinaryBlob8RelocateEv
08056f34 T _ZN27CLR_RT_HeapBlock_I2CXAction10CopyBufferEPhjj
200060d0 B _ZN27CLR_RT_HeapBlock_I2CXAction10m_i2cPortsE
08056f18 T _ZN27CLR_RT_HeapBlock_I2CXAction11IsCompletedEv
08056efc T _ZN27CLR_RT_HeapBlock_I2CXAction12IsTerminatedEv
0805708c T _ZN27CLR_RT_HeapBlock_I2CXAction13RecoverFromGCEv
08056ffc T _ZN27CLR_RT_HeapBlock_I2CXAction14CreateInstanceER16CLR_RT_HeapBlockS1_
08056d78 T _ZN27CLR_RT_HeapBlock_I2CXAction14PrepareXActionER22I2C_USER_CONFIGURATIONj
08056cd4 T _ZN27CLR_RT_HeapBlock_I2CXAction14ReleaseBuffersEv
08056e6c T _ZN27CLR_RT_HeapBlock_I2CXAction15AllocateXActionEj
08056cbc T _ZN27CLR_RT_HeapBlock_I2CXAction15ExtractInstanceER16CLR_RT_HeapBlockRPS_
08056f8c T _ZN27CLR_RT_HeapBlock_I2CXAction15TransactedBytesEv
08056f70 T _ZN27CLR_RT_HeapBlock_I2CXAction17IsReadXActionUnitEj
08056fb8 T _ZN27CLR_RT_HeapBlock_I2CXAction17ReleaseWhenDeadExEv
08056db4 T _ZN27CLR_RT_HeapBlock_I2CXAction18PrepareXActionUnitEPhjjb
08056fd8 T _ZN27CLR_RT_HeapBlock_I2CXAction21HandlerMethod_CleanUpEv
08056cac T _ZN27CLR_RT_HeapBlock_I2CXAction24HandlerMethod_InitializeEv
0805709c T _ZN27CLR_RT_HeapBlock_I2CXAction27HandlerMethod_RecoverFromGCEv
08056d4c T _ZN27CLR_RT_HeapBlock_I2CXAction6CancelEb
08056e40 T _ZN27CLR_RT_HeapBlock_I2CXAction7EnqueueEv
08056d5c T _ZN27CLR_RT_HeapBlock_I2CXAction9IsPendingEv
0804b920 T _ZN27CLR_RT_ObjectToEvent_Source14CreateInstanceEP32CLR_RT_ObjectToEvent_DestinationR16CLR_RT_HeapBlockS3_
08043aec T _ZN27CLR_RT_ObjectToEvent_Source15ExtractInstanceER16CLR_RT_HeapBlock
08043bac T _ZN27CLR_RT_ObjectToEvent_Source19EnsureObjectIsAliveEv
08043b5c T _ZN27CLR_RT_ObjectToEvent_Source6DetachEv
08041bbc T _ZN27CLR_RT_ObjectToEvent_Source8RelocateEv
0804aff8 T _ZN28CLR_RT_HeapBlock_LockRequest14CreateInstanceEP21CLR_RT_HeapBlock_LockP16CLR_RT_SubThreadRKxb
08047a10 T _ZN30CLR_RT_HeapBlock_Delegate_List14CreateInstanceERPS_j
08042cc0 T _ZN30CLR_RT_HeapBlock_Delegate_List15CopyAndCompressEP16CLR_RT_HeapBlockS1_j
08047a50 T _ZN30CLR_RT_HeapBlock_Delegate_List6ChangeER16CLR_RT_HeapBlockS1_S1_bb
08047cdc T _ZN30CLR_RT_HeapBlock_Delegate_List6RemoveER16CLR_RT_HeapBlockS1_S1_
08047cc8 T _ZN30CLR_RT_HeapBlock_Delegate_List7CombineER16CLR_RT_HeapBlockS1_S1_b
08041ac0 T _ZN30CLR_RT_HeapBlock_Delegate_List8RelocateEv
0804af7c T _ZN30CLR_RT_HeapBlock_WaitForObject12SignalObjectER16CLR_RT_HeapBlock
080486b8 T _ZN30CLR_RT_HeapBlock_WaitForObject13WaitForSignalER17CLR_RT_StackFrameRKxP16CLR_RT_HeapBlockjb
08048738 T _ZN30CLR_RT_HeapBlock_WaitForObject13WaitForSignalER17CLR_RT_StackFrameRKxR16CLR_RT_HeapBlock
0804864c T _ZN30CLR_RT_HeapBlock_WaitForObject14CreateInstanceEP13CLR_RT_ThreadRKxP16CLR_RT_HeapBlockjb
0804af58 T _ZN30CLR_RT_HeapBlock_WaitForObject16TryWaitForSignalEP13CLR_RT_Thread
080430a8 T _ZN30CLR_RT_HeapBlock_WaitForObject16TryWaitForSignalEP13CLR_RT_ThreadP16CLR_RT_HeapBlockjb
08041acc T _ZN30CLR_RT_HeapBlock_WaitForObject8RelocateEv
080243a0 T _ZN30CLR_RT_HeapBlock_WeakReference14CreateInstanceERPS_
0802451c T _ZN30CLR_RT_HeapBlock_WeakReference14RecoverObjectsER20CLR_RT_DblLinkedList
08024440 T _ZN30CLR_RT_HeapBlock_WeakReference18PrepareForRecoveryEP21CLR_RT_HeapBlock_NodeS1_j
080243d8 T _ZN30CLR_RT_HeapBlock_WeakReference21InsertInPriorityOrderEv
08024424 T _ZN30CLR_RT_HeapBlock_WeakReference8RelocateEv
080243c8 T _ZN30CLR_RT_HeapBlock_WeakReference9GetTargetER16CLR_RT_HeapBlock
08024408 T _ZN30CLR_RT_HeapBlock_WeakReference9SetTargetER16CLR_RT_HeapBlock
0802eab4 T _ZN30PortableArrayKitUpdateProvider11GetPropertyEP8MFUpdatePKcPhPi
0802eab8 T _ZN30PortableArrayKitUpdateProvider11SetPropertyEP8MFUpdatePKcPhi
0802eabc T _ZN30PortableArrayKitUpdateProvider13InstallUpdateEP8MFUpdatePhi
0802eaa0 T _ZN30PortableArrayKitUpdateProvider16InitializeUpdateEP8MFUpdate
08051bb4 T _ZN31Library_corlib_native_System_GC38AnyPendingFinalizers___STATIC__BOOLEANER17CLR_RT_StackFrame
08051bf8 T _ZN31Library_corlib_native_System_GC39SuppressFinalize___STATIC__VOID__OBJECTER17CLR_RT_StackFrame
08051c10 T _ZN31Library_corlib_native_System_GC44ReRegisterForFinalize___STATIC__VOID__OBJECTER17CLR_RT_StackFrame
0805753c T _ZN31Library_SMO_InferenceEngine_EMI17runEMITest___VOIDER17CLR_RT_StackFrame
08057568 T _ZN31Library_SMO_InferenceEngine_EMI31EMIDriver___BOOLEAN__SZARRAY_U4ER17CLR_RT_StackFrame
08043aa0 T _ZN32CLR_RT_ObjectToEvent_Destination10InitializeEv
08043acc T _ZN32CLR_RT_ObjectToEvent_Destination15ReleaseWhenDeadEv
08043aac T _ZN32CLR_RT_ObjectToEvent_Destination17IsReadyForReleaseEv
08043bcc T _ZN32CLR_RT_ObjectToEvent_Destination8CheckAllEv
08043b80 T _ZN32CLR_RT_ObjectToEvent_Destination9DetachAllEv
0804afb4 T _ZN32CLR_RT_ObjectToEvent_Destination9SignalAllEv
08051d7c T _ZN33Library_corlib_native_System_Math20Cos___STATIC__R8__R8ER17CLR_RT_StackFrame
08051e00 T _ZN33Library_corlib_native_System_Math20Exp___STATIC__R8__R8ER17CLR_RT_StackFrame
08051e50 T _ZN33Library_corlib_native_System_Math20Log___STATIC__R8__R8ER17CLR_RT_StackFrame
08051f50 T _ZN33Library_corlib_native_System_Math20Sin___STATIC__R8__R8ER17CLR_RT_StackFrame
08051fc8 T _ZN33Library_corlib_native_System_Math20Tan___STATIC__R8__R8ER17CLR_RT_StackFrame
08051ca8 T _ZN33Library_corlib_native_System_Math21Acos___STATIC__R8__R8ER17CLR_RT_StackFrame
08051cd0 T _ZN33Library_corlib_native_System_Math21Asin___STATIC__R8__R8ER17CLR_RT_StackFrame
08051cf8 T _ZN33Library_corlib_native_System_Math21Atan___STATIC__R8__R8ER17CLR_RT_StackFrame
08051da4 T _ZN33Library_corlib_native_System_Math21Cosh___STATIC__R8__R8ER17CLR_RT_StackFrame
080510c0 T _ZN33Library_corlib_native_System_Math21Sign___STATIC__I4__R8ER17CLR_RT_StackFrame
08051f78 T _ZN33Library_corlib_native_System_Math21Sinh___STATIC__R8__R8ER17CLR_RT_StackFrame
08051fa0 T _ZN33Library_corlib_native_System_Math21Sqrt___STATIC__R8__R8ER17CLR_RT_StackFrame
08051ff0 T _ZN33Library_corlib_native_System_Math21Tanh___STATIC__R8__R8ER17CLR_RT_StackFrame
08051e28 T _ZN33Library_corlib_native_System_Math22Floor___STATIC__R8__R8ER17CLR_RT_StackFrame
08051e78 T _ZN33Library_corlib_native_System_Math22Log10___STATIC__R8__R8ER17CLR_RT_StackFrame
08051ed4 T _ZN33Library_corlib_native_System_Math22Round___STATIC__R8__R8ER17CLR_RT_StackFrame
08051d54 T _ZN33Library_corlib_native_System_Math24Ceiling___STATIC__R8__R8ER17CLR_RT_StackFrame
08051ea0 T _ZN33Library_corlib_native_System_Math24Pow___STATIC__R8__R8__R8ER17CLR_RT_StackFrame
08052018 T _ZN33Library_corlib_native_System_Math25Truncate___STATIC__R8__R8ER17CLR_RT_StackFrame
08051d20 T _ZN33Library_corlib_native_System_Math26Atan2___STATIC__R8__R8__R8ER17CLR_RT_StackFrame
08051dcc T _ZN33Library_corlib_native_System_Math34IEEERemainder___STATIC__R8__R8__R8ER17CLR_RT_StackFrame
080527e0 T _ZN33Library_corlib_native_System_Type107InvokeMember___OBJECT__STRING__SystemReflectionBindingFlags__SystemReflectionBinder__OBJECT__SZARRAY_OBJECTER17CLR_RT_StackFrame
08055ecc T _ZN33Library_corlib_native_System_Type10CheckFlagsER17CLR_RT_StackFramejj
0805616c T _ZN33Library_corlib_native_System_Type10GetMethodsER17CLR_RT_StackFramePKcjP16CLR_RT_HeapBlockib
08055f60 T _ZN33Library_corlib_native_System_Type20get_IsEnum___BOOLEANER17CLR_RT_StackFrame
08054a84 T _ZN33Library_corlib_native_System_Type21get_IsArray___BOOLEANER17CLR_RT_StackFrame
08055f30 T _ZN33Library_corlib_native_System_Type21get_IsClass___BOOLEANER17CLR_RT_StackFrame
08055f24 T _ZN33Library_corlib_native_System_Type22get_IsPublic___BOOLEANER17CLR_RT_StackFrame
08055f54 T _ZN33Library_corlib_native_System_Type24get_IsAbstract___BOOLEANER17CLR_RT_StackFrame
08055f3c T _ZN33Library_corlib_native_System_Type25get_IsInterface___BOOLEANER17CLR_RT_StackFrame
08055f18 T _ZN33Library_corlib_native_System_Type25get_IsNotPublic___BOOLEANER17CLR_RT_StackFrame
08055f48 T _ZN33Library_corlib_native_System_Type25get_IsValueType___BOOLEANER17CLR_RT_StackFrame
08055f6c T _ZN33Library_corlib_native_System_Type28get_IsSerializable___BOOLEANER17CLR_RT_StackFrame
08054a0c T _ZN33Library_corlib_native_System_Type30get_DeclaringType___SystemTypeER17CLR_RT_StackFrame
08052d90 T _ZN33Library_corlib_native_System_Type34IsInstanceOfType___BOOLEAN__OBJECTER17CLR_RT_StackFrame
08056518 T _ZN33Library_corlib_native_System_Type46GetMethod___SystemReflectionMethodInfo__STRINGER17CLR_RT_StackFrame
08050d5c T _ZN33Library_corlib_native_System_Type63GetTypeFromHandle___STATIC__SystemType__SystemRuntimeTypeHandleER17CLR_RT_StackFrame
080564d4 T _ZN33Library_corlib_native_System_Type66GetMethod___SystemReflectionMethodInfo__STRING__SZARRAY_SystemTypeER17CLR_RT_StackFrame
080564a8 T _ZN33Library_corlib_native_System_Type68GetConstructor___SystemReflectionConstructorInfo__SZARRAY_SystemTypeER17CLR_RT_StackFrame
08052dd8 T _ZN33Library_corlib_native_System_Type73GetTypeInternal___STATIC__SystemType__STRING__STRING__BOOLEAN__SZARRAY_I4ER17CLR_RT_StackFrame
08056470 T _ZN33Library_corlib_native_System_Type76GetMethod___SystemReflectionMethodInfo__STRING__SystemReflectionBindingFlagsER17CLR_RT_StackFrame
08055f78 T _ZN33Library_corlib_native_System_Type9GetFieldsER17CLR_RT_StackFramePKcjb
08053358 T _ZN34Library_corlib_native_System_Array12TrySZIndexOfER17CLR_RT_StackFrameR16CLR_RT_HeapBlockS3_iibS3_
080510a0 T _ZN34Library_corlib_native_System_Array15get_Length___I4ER17CLR_RT_StackFrame
080532f4 T _ZN34Library_corlib_native_System_Array41Clear___STATIC__VOID__SystemArray__I4__I4ER17CLR_RT_StackFrame
08051014 T _ZN34Library_corlib_native_System_Array46System_Collections_IList_get_Item___OBJECT__I4ER17CLR_RT_StackFrame
08053304 T _ZN34Library_corlib_native_System_Array4CopyER17CLR_RT_StackFrameR16CLR_RT_HeapBlockiS3_ii
0805493c T _ZN34Library_corlib_native_System_Array52CreateInstance___STATIC__SystemArray__SystemType__I4ER17CLR_RT_StackFrame
08051064 T _ZN34Library_corlib_native_System_Array52System_Collections_IList_set_Item___VOID__I4__OBJECTER17CLR_RT_StackFrame
0805333c T _ZN34Library_corlib_native_System_Array57Copy___STATIC__VOID__SystemArray__I4__SystemArray__I4__I4ER17CLR_RT_StackFrame
080532ac T _ZN34Library_corlib_native_System_Array5ClearER17CLR_RT_StackFrameR16CLR_RT_HeapBlockii
080533d8 T _ZN34Library_corlib_native_System_Array69TrySZIndexOf___STATIC__BOOLEAN__SystemArray__I4__I4__OBJECT__BYREF_I4ER17CLR_RT_StackFrame
08051b3c T _ZN35Library_corlib_native_System_Double27IsNaN___STATIC__BOOLEAN__R8ER17CLR_RT_StackFrame
08051acc T _ZN35Library_corlib_native_System_Double30CompareTo___STATIC__I4__R8__R8ER17CLR_RT_StackFrame
08051b14 T _ZN35Library_corlib_native_System_Double32IsInfinity___STATIC__BOOLEAN__R8ER17CLR_RT_StackFrame
08051b64 T _ZN35Library_corlib_native_System_Double40IsNegativeInfinity___STATIC__BOOLEAN__R8ER17CLR_RT_StackFrame
08051b8c T _ZN35Library_corlib_native_System_Double40IsPositiveInfinity___STATIC__BOOLEAN__R8ER17CLR_RT_StackFrame
0805204c T _ZN35Library_corlib_native_System_Number47FormatNative___STATIC__STRING__OBJECT__CHAR__I4ER17CLR_RT_StackFrame
08052380 T _ZN35Library_corlib_native_System_Object16GetHashCode___I4ER17CLR_RT_StackFrame
0805239c T _ZN35Library_corlib_native_System_Object20GetType___SystemTypeER17CLR_RT_StackFrame
0805232c T _ZN35Library_corlib_native_System_Object24Equals___BOOLEAN__OBJECTER17CLR_RT_StackFrame
08052420 T _ZN35Library_corlib_native_System_Object24MemberwiseClone___OBJECTER17CLR_RT_StackFrame
08052348 T _ZN35Library_corlib_native_System_Object49ReferenceEquals___STATIC__BOOLEAN__OBJECT__OBJECTER17CLR_RT_StackFrame
08053c68 T _ZN35Library_corlib_native_System_Random12_ctor___VOIDER17CLR_RT_StackFrame
08053bd4 T _ZN35Library_corlib_native_System_Random13Next___I4__I4ER17CLR_RT_StackFrame
08053c10 T _ZN35Library_corlib_native_System_Random15NextDouble___R8ER17CLR_RT_StackFrame
08053c88 T _ZN35Library_corlib_native_System_Random16_ctor___VOID__I4ER17CLR_RT_StackFrame
08053c38 T _ZN35Library_corlib_native_System_Random28NextBytes___VOID__SZARRAY_U1ER17CLR_RT_StackFrame
08053b78 T _ZN35Library_corlib_native_System_Random9GetRandomER17CLR_RT_StackFrameRP13CLR_RT_Randomb
08053bac T _ZN35Library_corlib_native_System_Random9Next___I4ER17CLR_RT_StackFrame
08055198 T _ZN35Library_corlib_native_System_String10ChangeCaseER17CLR_RT_StackFrameb
0805513c T _ZN35Library_corlib_native_System_String11ToCharArrayER17CLR_RT_StackFrameii
08054b78 T _ZN35Library_corlib_native_System_String13FromCharArrayER17CLR_RT_StackFrameii
0805543c T _ZN35Library_corlib_native_System_String13Trim___STRINGER17CLR_RT_StackFrame
08052854 T _ZN35Library_corlib_native_System_String15get_Length___I4ER17CLR_RT_StackFrame
08055234 T _ZN35Library_corlib_native_System_String16ToLower___STRINGER17CLR_RT_StackFrame
08055240 T _ZN35Library_corlib_native_System_String16ToUpper___STRINGER17CLR_RT_StackFrame
08055084 T _ZN35Library_corlib_native_System_String18ConvertToCharArrayEPKcR16CLR_RT_HeapBlockRP22CLR_RT_HeapBlock_Arrayii
08055114 T _ZN35Library_corlib_native_System_String18ConvertToCharArrayER17CLR_RT_StackFrameR16CLR_RT_HeapBlockRP22CLR_RT_HeapBlock_Arrayii
08054dcc T _ZN35Library_corlib_native_System_String18IndexOf___I4__CHARER17CLR_RT_StackFrame
08052898 T _ZN35Library_corlib_native_System_String20get_Chars___CHAR__I4ER17CLR_RT_StackFrame
08054e14 T _ZN35Library_corlib_native_System_String20IndexOf___I4__STRINGER17CLR_RT_StackFrame
08052a44 T _ZN35Library_corlib_native_System_String22_ctor___VOID__CHAR__I4ER17CLR_RT_StackFrame
080519d8 T _ZN35Library_corlib_native_System_String22CompareTo___I4__OBJECTER17CLR_RT_StackFrame
080519bc T _ZN35Library_corlib_native_System_String22CompareTo___I4__STRINGER17CLR_RT_StackFrame
08054dd8 T _ZN35Library_corlib_native_System_String22IndexOf___I4__CHAR__I4ER17CLR_RT_StackFrame
08054e38 T _ZN35Library_corlib_native_System_String22LastIndexOf___I4__CHARER17CLR_RT_StackFrame
080552f4 T _ZN35Library_corlib_native_System_String22Substring___STRING__I4ER17CLR_RT_StackFrame
08054e20 T _ZN35Library_corlib_native_System_String24IndexOf___I4__STRING__I4ER17CLR_RT_StackFrame
08054e80 T _ZN35Library_corlib_native_System_String24LastIndexOf___I4__STRINGER17CLR_RT_StackFrame
08054bd0 T _ZN35Library_corlib_native_System_String26_ctor___VOID__SZARRAY_CHARER17CLR_RT_StackFrame
08054de4 T _ZN35Library_corlib_native_System_String26IndexOf___I4__CHAR__I4__I4ER17CLR_RT_StackFrame
08054e44 T _ZN35Library_corlib_native_System_String26LastIndexOf___I4__CHAR__I4ER17CLR_RT_StackFrame
08055304 T _ZN35Library_corlib_native_System_String26Substring___STRING__I4__I4ER17CLR_RT_StackFrame
08055178 T _ZN35Library_corlib_native_System_String26ToCharArray___SZARRAY_CHARER17CLR_RT_StackFrame
0805540c T _ZN35Library_corlib_native_System_String27Trim___STRING__SZARRAY_CHARER17CLR_RT_StackFrame
08054e2c T _ZN35Library_corlib_native_System_String28IndexOf___I4__STRING__I4__I4ER17CLR_RT_StackFrame
08054e8c T _ZN35Library_corlib_native_System_String28LastIndexOf___I4__STRING__I4ER17CLR_RT_StackFrame
08054df0 T _ZN35Library_corlib_native_System_String29IndexOfAny___I4__SZARRAY_CHARER17CLR_RT_StackFrame
08054e50 T _ZN35Library_corlib_native_System_String30LastIndexOf___I4__CHAR__I4__I4ER17CLR_RT_StackFrame
0805542c T _ZN35Library_corlib_native_System_String30TrimEnd___STRING__SZARRAY_CHARER17CLR_RT_StackFrame
08054e98 T _ZN35Library_corlib_native_System_String32LastIndexOf___I4__STRING__I4__I4ER17CLR_RT_StackFrame
0805541c T _ZN35Library_corlib_native_System_String32TrimStart___STRING__SZARRAY_CHARER17CLR_RT_StackFrame
08054dfc T _ZN35Library_corlib_native_System_String33IndexOfAny___I4__SZARRAY_CHAR__I4ER17CLR_RT_StackFrame
08054e5c T _ZN35Library_corlib_native_System_String33LastIndexOfAny___I4__SZARRAY_CHARER17CLR_RT_StackFrame
08054bc0 T _ZN35Library_corlib_native_System_String34_ctor___VOID__SZARRAY_CHAR__I4__I4ER17CLR_RT_StackFrame
08055188 T _ZN35Library_corlib_native_System_String34ToCharArray___SZARRAY_CHAR__I4__I4ER17CLR_RT_StackFrame
08051a08 T _ZN35Library_corlib_native_System_String36Compare___STATIC__I4__STRING__STRINGER17CLR_RT_StackFrame
080555e0 T _ZN35Library_corlib_native_System_String36Split___SZARRAY_STRING__SZARRAY_CHARER17CLR_RT_StackFrame
08054e08 T _ZN35Library_corlib_native_System_String37IndexOfAny___I4__SZARRAY_CHAR__I4__I4ER17CLR_RT_StackFrame
08054e68 T _ZN35Library_corlib_native_System_String37LastIndexOfAny___I4__SZARRAY_CHAR__I4ER17CLR_RT_StackFrame
08055048 T _ZN35Library_corlib_native_System_String39Concat___STATIC__STRING__STRING__STRINGER17CLR_RT_StackFrame
0805506c T _ZN35Library_corlib_native_System_String39Concat___STATIC__STRING__SZARRAY_STRINGER17CLR_RT_StackFrame
080519e0 T _ZN35Library_corlib_native_System_String40Equals___STATIC__BOOLEAN__STRING__STRINGER17CLR_RT_StackFrame
080555f0 T _ZN35Library_corlib_native_System_String40Split___SZARRAY_STRING__SZARRAY_CHAR__I4ER17CLR_RT_StackFrame
08054e74 T _ZN35Library_corlib_native_System_String41LastIndexOfAny___I4__SZARRAY_CHAR__I4__I4ER17CLR_RT_StackFrame
08051a00 T _ZN35Library_corlib_native_System_String45op_Equality___STATIC__BOOLEAN__STRING__STRINGER17CLR_RT_StackFrame
08055054 T _ZN35Library_corlib_native_System_String47Concat___STATIC__STRING__STRING__STRING__STRINGER17CLR_RT_StackFrame
08051a90 T _ZN35Library_corlib_native_System_String47op_Inequality___STATIC__BOOLEAN__STRING__STRINGER17CLR_RT_StackFrame
0805531c T _ZN35Library_corlib_native_System_String4TrimER17CLR_RT_StackFrameP22CLR_RT_HeapBlock_Arraybb
08055060 T _ZN35Library_corlib_native_System_String55Concat___STATIC__STRING__STRING__STRING__STRING__STRINGER17CLR_RT_StackFrame
0805544c T _ZN35Library_corlib_native_System_String5SplitER17CLR_RT_StackFrameR16CLR_RT_HeapBlocki
08054ea4 T _ZN35Library_corlib_native_System_String6ConcatER17CLR_RT_StackFrameP16CLR_RT_HeapBlocki
08054be0 T _ZN35Library_corlib_native_System_String7IndexOfER17CLR_RT_StackFramei
0805524c T _ZN35Library_corlib_native_System_String9SubstringER17CLR_RT_StackFrameii
080575bc T _ZN36Library_SMO_InferenceEngine_FastGRNN22runFastGRNNTest___VOIDER17CLR_RT_StackFrame
080575e8 T _ZN36Library_SMO_InferenceEngine_FastGRNN36FastGRNNDriver___BOOLEAN__SZARRAY_U4ER17CLR_RT_StackFrame
08053610 T _ZN37Library_corlib_native_System_DateTime11GetValuePtrER16CLR_RT_HeapBlock
0805365c T _ZN37Library_corlib_native_System_DateTime11GetValuePtrER17CLR_RT_StackFrame
08053788 T _ZN37Library_corlib_native_System_DateTime12get_Day___I4ER17CLR_RT_StackFrame
080537f4 T _ZN37Library_corlib_native_System_DateTime13get_Hour___I4ER17CLR_RT_StackFrame
08053880 T _ZN37Library_corlib_native_System_DateTime13get_Year___I4ER17CLR_RT_StackFrame
08053848 T _ZN37Library_corlib_native_System_DateTime14get_Month___I4ER17CLR_RT_StackFrame
0805382c T _ZN37Library_corlib_native_System_DateTime15get_Minute___I4ER17CLR_RT_StackFrame
08053864 T _ZN37Library_corlib_native_System_DateTime15get_Second___I4ER17CLR_RT_StackFrame
080537c0 T _ZN37Library_corlib_native_System_DateTime18get_DayOfYear___I4ER17CLR_RT_StackFrame
08053810 T _ZN37Library_corlib_native_System_DateTime20get_Millisecond___I4ER17CLR_RT_StackFrame
08053668 T _ZN37Library_corlib_native_System_DateTime28ToLocalTime___SystemDateTimeER17CLR_RT_StackFrame
080537a4 T _ZN37Library_corlib_native_System_DateTime31get_DayOfWeek___SystemDayOfWeekER17CLR_RT_StackFrame
08051964 T _ZN37Library_corlib_native_System_DateTime32DaysInMonth___STATIC__I4__I4__I4ER17CLR_RT_StackFrame
080535b0 T _ZN37Library_corlib_native_System_DateTime32get_Now___STATIC__SystemDateTimeER17CLR_RT_StackFrame
080536e0 T _ZN37Library_corlib_native_System_DateTime32ToUniversalTime___SystemDateTimeER17CLR_RT_StackFrame
080535d8 T _ZN37Library_corlib_native_System_DateTime34get_Today___STATIC__SystemDateTimeER17CLR_RT_StackFrame
080535c4 T _ZN37Library_corlib_native_System_DateTime35get_UtcNow___STATIC__SystemDateTimeER17CLR_RT_StackFrame
080538b4 T _ZN37Library_corlib_native_System_DateTime40_ctor___VOID__I4__I4__I4__I4__I4__I4__I4ER17CLR_RT_StackFrame
08053760 T _ZN37Library_corlib_native_System_DateTime6ExpandER17CLR_RT_StackFrameR10SYSTEMTIME
0805389c T _ZN37Library_corlib_native_System_DateTime8CompressER17CLR_RT_StackFrameRK10SYSTEMTIME
08053584 T _ZN37Library_corlib_native_System_DateTime9NewObjectER17CLR_RT_StackFrame
08053930 T _ZN37Library_corlib_native_System_Delegate15GetLastDelegateEP25CLR_RT_HeapBlock_Delegate
080539a8 T _ZN37Library_corlib_native_System_Delegate19get_Target___OBJECTER17CLR_RT_StackFrame
0805198c T _ZN37Library_corlib_native_System_Delegate24Equals___BOOLEAN__OBJECTER17CLR_RT_StackFrame
08053954 T _ZN37Library_corlib_native_System_Delegate39get_Method___SystemReflectionMethodInfoER17CLR_RT_StackFrame
080519ac T _ZN37Library_corlib_native_System_Delegate61op_Equality___STATIC__BOOLEAN__SystemDelegate__SystemDelegateER17CLR_RT_StackFrame
08051a70 T _ZN37Library_corlib_native_System_Delegate63op_Inequality___STATIC__BOOLEAN__SystemDelegate__SystemDelegateER17CLR_RT_StackFrame
08051a4c T _ZN37Library_corlib_native_System_Delegate63Remove___STATIC__SystemDelegate__SystemDelegate__SystemDelegateER17CLR_RT_StackFrame
08051a24 T _ZN37Library_corlib_native_System_Delegate64Combine___STATIC__SystemDelegate__SystemDelegate__SystemDelegateER17CLR_RT_StackFrame
08055ccc T _ZN37Library_corlib_native_System_TimeSpan11GetValuePtrER16CLR_RT_HeapBlock
08055d50 T _ZN37Library_corlib_native_System_TimeSpan11GetValuePtrER17CLR_RT_StackFrame
08055be4 T _ZN37Library_corlib_native_System_TimeSpan17ConstructTimeSpanEPxiiiii
08055d5c T _ZN37Library_corlib_native_System_TimeSpan17ToString___STRINGER17CLR_RT_StackFrame
08055e70 T _ZN37Library_corlib_native_System_TimeSpan22CompareTo___I4__OBJECTER17CLR_RT_StackFrame
08055d8c T _ZN37Library_corlib_native_System_TimeSpan24_ctor___VOID__I4__I4__I4ER17CLR_RT_StackFrame
08055e88 T _ZN37Library_corlib_native_System_TimeSpan24Equals___BOOLEAN__OBJECTER17CLR_RT_StackFrame
08055db8 T _ZN37Library_corlib_native_System_TimeSpan28_ctor___VOID__I4__I4__I4__I4ER17CLR_RT_StackFrame
08055de8 T _ZN37Library_corlib_native_System_TimeSpan32_ctor___VOID__I4__I4__I4__I4__I4ER17CLR_RT_StackFrame
08055e18 T _ZN37Library_corlib_native_System_TimeSpan52Compare___STATIC__I4__SystemTimeSpan__SystemTimeSpanER17CLR_RT_StackFrame
08055eb4 T _ZN37Library_corlib_native_System_TimeSpan56Equals___STATIC__BOOLEAN__SystemTimeSpan__SystemTimeSpanER17CLR_RT_StackFrame
08055ca0 T _ZN37Library_corlib_native_System_TimeSpan9NewObjectER17CLR_RT_StackFrame
08051934 T _ZN37Library_corlib_native_System_TimeZone30GetTimeZoneOffset___STATIC__I8ER17CLR_RT_StackFrame
08056978 T _ZN38CLR_RT_HeapBlock_NativeEventDispatcher13RecoverFromGCEv
08056c18 T _ZN38CLR_RT_HeapBlock_NativeEventDispatcher13StartDispatchEP27CLR_RT_ApplicationInterruptP13CLR_RT_Thread
08056868 T _ZN38CLR_RT_HeapBlock_NativeEventDispatcher14CreateInstanceER16CLR_RT_HeapBlockS1_
08056acc T _ZN38CLR_RT_HeapBlock_NativeEventDispatcher14SaveToHALQueueEjj
080568f4 T _ZN38CLR_RT_HeapBlock_NativeEventDispatcher17ReleaseWhenDeadExEv
080569a4 T _ZN38CLR_RT_HeapBlock_NativeEventDispatcher18RemoveFromHALQueueEv
08056bf8 T _ZN38CLR_RT_HeapBlock_NativeEventDispatcher20RecoverManagedObjectERP16CLR_RT_HeapBlock
08056948 T _ZN38CLR_RT_HeapBlock_NativeEventDispatcher21HandlerMethod_CleanUpEv
08056858 T _ZN38CLR_RT_HeapBlock_NativeEventDispatcher24HandlerMethod_InitializeEv
08056828 T _ZN38CLR_RT_HeapBlock_NativeEventDispatcher25ThreadTerminationCallbackEPv
08056988 T _ZN38CLR_RT_HeapBlock_NativeEventDispatcher27HandlerMethod_RecoverFromGCEv
08056804 T _ZN38CLR_RT_HeapBlock_NativeEventDispatcher29RTOSThreadTerminationCallbackEPv
200060c4 B _ZN38CLR_RT_HeapBlock_NativeEventDispatcher9m_ioPortsE
08052f9c T _ZN38Library_corlib_native_System_AppDomain12GetAppDomainER16CLR_RT_HeapBlockRP16CLR_RT_AppDomainS4_b
080531e4 T _ZN38Library_corlib_native_System_AppDomain38Unload___STATIC__VOID__SystemAppDomainER17CLR_RT_StackFrame
08050f38 T _ZN38Library_corlib_native_System_AppDomain46CreateDomain___STATIC__SystemAppDomain__STRINGER17CLR_RT_StackFrame
0805304c T _ZN38Library_corlib_native_System_AppDomain48GetAssemblies___SZARRAY_SystemReflectionAssemblyER17CLR_RT_StackFrame
080530ac T _ZN38Library_corlib_native_System_AppDomain72LoadInternal___SystemReflectionAssembly__STRING__BOOLEAN__I4__I4__I4__I4ER17CLR_RT_StackFrame
08053b60 T _ZN38Library_corlib_native_System_Exception13GetStackTraceEP16CLR_RT_HeapBlockRj
080539ec T _ZN38Library_corlib_native_System_Exception13SetStackTraceER16CLR_RT_HeapBlockP17CLR_RT_StackFrame
08053af8 T _ZN38Library_corlib_native_System_Exception14CreateInstanceER16CLR_RT_HeapBlockiP17CLR_RT_StackFrame
08053a6c T _ZN38Library_corlib_native_System_Exception14CreateInstanceER16CLR_RT_HeapBlockRK20CLR_RT_TypeDef_IndexiP17CLR_RT_StackFrame
08054f6c T _ZN38Library_corlib_native_System_Exception23get_StackTrace___STRINGER17CLR_RT_StackFrame
08053b44 T _ZN38Library_corlib_native_System_Exception9GetTargetER16CLR_RT_HeapBlock
08052364 T _ZN38Library_corlib_native_System_ValueType24Equals___BOOLEAN__OBJECTER17CLR_RT_StackFrame
080586b8 T _ZN39Library_spot_native_Microsoft_SPOT_Math20Cos___STATIC__I4__I4ER17CLR_RT_StackFrame
080586c4 T _ZN39Library_spot_native_Microsoft_SPOT_Math20Sin___STATIC__I4__I4ER17CLR_RT_StackFrame
20001cf4 V _ZN3MACI23IEEE802_15_4_Message_t29MACConfigE10AppIDIndexE
20001cf8 V _ZN3MACI23IEEE802_15_4_Message_t29MACConfigE11AppHandlersE
200034d4 V _ZN3MACI23IEEE802_15_4_Message_t29MACConfigE17NativeAppHandlersE
08054b08 T _ZN40Library_corlib_native_System_RuntimeType17get_Name___STRINGER17CLR_RT_StackFrame
08054910 T _ZN40Library_corlib_native_System_RuntimeType17GetTypeDescriptorER16CLR_RT_HeapBlockR23CLR_RT_TypeDef_Instance
08054804 T _ZN40Library_corlib_native_System_RuntimeType17GetTypeDescriptorER16CLR_RT_HeapBlockR23CLR_RT_TypeDef_InstancePj
08054b40 T _ZN40Library_corlib_native_System_RuntimeType21get_FullName___STRINGER17CLR_RT_StackFrame
08054874 T _ZN40Library_corlib_native_System_RuntimeType25get_BaseType___SystemTypeER17CLR_RT_StackFrame
080527e8 T _ZN40Library_corlib_native_System_RuntimeType27GetElementType___SystemTypeER17CLR_RT_StackFrame
08054978 T _ZN40Library_corlib_native_System_RuntimeType34GetInterfaces___SZARRAY_SystemTypeER17CLR_RT_StackFrame
08054818 T _ZN40Library_corlib_native_System_RuntimeType39get_Assembly___SystemReflectionAssemblyER17CLR_RT_StackFrame
08056138 T _ZN40Library_corlib_native_System_RuntimeType74GetField___SystemReflectionFieldInfo__STRING__SystemReflectionBindingFlagsER17CLR_RT_StackFrame
0805615c T _ZN40Library_corlib_native_System_RuntimeType75GetFields___SZARRAY_SystemReflectionFieldInfo__SystemReflectionBindingFlagsER17CLR_RT_StackFrame
08056454 T _ZN40Library_corlib_native_System_RuntimeType77GetMethods___SZARRAY_SystemReflectionMethodInfo__SystemReflectionBindingFlagsER17CLR_RT_StackFrame
08054abc T _ZN40Library_corlib_native_System_RuntimeType7GetNameER16CLR_RT_HeapBlockbS1_
080586d0 T _ZN40Library_spot_native_Microsoft_SPOT_Debug24GC___STATIC__U4__BOOLEANER17CLR_RT_StackFrame
08058600 T _ZN40Library_spot_native_Microsoft_SPOT_Debug28Print___STATIC__VOID__STRINGER17CLR_RT_StackFrame
080585cc T _ZN40Library_spot_native_Microsoft_SPOT_Debug40EnableGCMessages___STATIC__VOID__BOOLEANER17CLR_RT_StackFrame
08051318 T _ZN41Library_corlib_native_System_BitConverter33GetBytes___STATIC__SZARRAY_U1__I2ER17CLR_RT_StackFrame
0805127c T _ZN41Library_corlib_native_System_BitConverter33GetBytes___STATIC__SZARRAY_U1__I4ER17CLR_RT_StackFrame
080512c4 T _ZN41Library_corlib_native_System_BitConverter33GetBytes___STATIC__SZARRAY_U1__I8ER17CLR_RT_StackFrame
08051234 T _ZN41Library_corlib_native_System_BitConverter33GetBytes___STATIC__SZARRAY_U1__R4ER17CLR_RT_StackFrame
080511dc T _ZN41Library_corlib_native_System_BitConverter33GetBytes___STATIC__SZARRAY_U1__R8ER17CLR_RT_StackFrame
080513fc T _ZN41Library_corlib_native_System_BitConverter33GetBytes___STATIC__SZARRAY_U1__U2ER17CLR_RT_StackFrame
08051360 T _ZN41Library_corlib_native_System_BitConverter33GetBytes___STATIC__SZARRAY_U1__U4ER17CLR_RT_StackFrame
080513a8 T _ZN41Library_corlib_native_System_BitConverter33GetBytes___STATIC__SZARRAY_U1__U8ER17CLR_RT_StackFrame
080514e8 T _ZN41Library_corlib_native_System_BitConverter34DoubleToInt64Bits___STATIC__I8__R8ER17CLR_RT_StackFrame
0805154c T _ZN41Library_corlib_native_System_BitConverter34Int64BitsToDouble___STATIC__R8__I8ER17CLR_RT_StackFrame
08051194 T _ZN41Library_corlib_native_System_BitConverter35GetBytes___STATIC__SZARRAY_U1__CHARER17CLR_RT_StackFrame
08051444 T _ZN41Library_corlib_native_System_BitConverter36get_IsLittleEndian___STATIC__BOOLEANER17CLR_RT_StackFrame
080515e8 T _ZN41Library_corlib_native_System_BitConverter36ToInt16___STATIC__I2__SZARRAY_U1__I4ER17CLR_RT_StackFrame
08051108 T _ZN41Library_corlib_native_System_BitConverter36ToInt32___STATIC__I4__SZARRAY_U1__I4ER17CLR_RT_StackFrame
0805150c T _ZN41Library_corlib_native_System_BitConverter36ToInt64___STATIC__I8__SZARRAY_U1__I4ER17CLR_RT_StackFrame
080515a8 T _ZN41Library_corlib_native_System_BitConverter37ToChar___STATIC__CHAR__SZARRAY_U1__I4ER17CLR_RT_StackFrame
08051564 T _ZN41Library_corlib_native_System_BitConverter37ToDouble___STATIC__R8__SZARRAY_U1__I4ER17CLR_RT_StackFrame
08051668 T _ZN41Library_corlib_native_System_BitConverter37ToSingle___STATIC__R4__SZARRAY_U1__I4ER17CLR_RT_StackFrame
08053458 T _ZN41Library_corlib_native_System_BitConverter37ToString___STATIC__STRING__SZARRAY_U1ER17CLR_RT_StackFrame
08051628 T _ZN41Library_corlib_native_System_BitConverter37ToUInt16___STATIC__U2__SZARRAY_U1__I4ER17CLR_RT_StackFrame
080516a8 T _ZN41Library_corlib_native_System_BitConverter37ToUInt32___STATIC__U4__SZARRAY_U1__I4ER17CLR_RT_StackFrame
080516e8 T _ZN41Library_corlib_native_System_BitConverter37ToUInt64___STATIC__U8__SZARRAY_U1__I4ER17CLR_RT_StackFrame
08051148 T _ZN41Library_corlib_native_System_BitConverter38GetBytes___STATIC__SZARRAY_U1__BOOLEANER17CLR_RT_StackFrame
080534a4 T _ZN41Library_corlib_native_System_BitConverter41ToString___STATIC__STRING__SZARRAY_U1__I4ER17CLR_RT_StackFrame
080514b4 T _ZN41Library_corlib_native_System_BitConverter43ToBoolean___STATIC__BOOLEAN__SZARRAY_U1__I4ER17CLR_RT_StackFrame
08053508 T _ZN41Library_corlib_native_System_BitConverter45ToString___STATIC__STRING__SZARRAY_U1__I4__I4ER17CLR_RT_StackFrame
08052f40 T _ZN42Library_corlib_native_System_WeakReference19get_Target___OBJECTER17CLR_RT_StackFrame
08052f84 T _ZN42Library_corlib_native_System_WeakReference20_ctor___VOID__OBJECTER17CLR_RT_StackFrame
08051468 T _ZN42Library_corlib_native_System_WeakReference21get_IsAlive___BOOLEANER17CLR_RT_StackFrame
08052f6c T _ZN42Library_corlib_native_System_WeakReference25set_Target___VOID__OBJECTER17CLR_RT_StackFrame
08055a44 T _ZN44Library_corlib_native_System_Threading_Timer13CheckDisposedER17CLR_RT_StackFrame
08055a54 T _ZN44Library_corlib_native_System_Threading_Timer14Dispose___VOIDER17CLR_RT_StackFrame
08055a7c T _ZN44Library_corlib_native_System_Threading_Timer24Change___BOOLEAN__I4__I4ER17CLR_RT_StackFrame
08055aa0 T _ZN44Library_corlib_native_System_Threading_Timer48Change___BOOLEAN__SystemTimeSpan__SystemTimeSpanER17CLR_RT_StackFrame
08055a64 T _ZN44Library_corlib_native_System_Threading_Timer58_ctor___VOID__SystemThreadingTimerCallback__OBJECT__I4__I4ER17CLR_RT_StackFrame
08055a70 T _ZN44Library_corlib_native_System_Threading_Timer82_ctor___VOID__SystemThreadingTimerCallback__OBJECT__SystemTimeSpan__SystemTimeSpanER17CLR_RT_StackFrame
08055a4c T _ZN44Library_corlib_native_System_Threading_Timer9SetValuesER17CLR_RT_StackFramej
08052920 T _ZN45Library_corlib_native_System_Text_UTF8Decoder100Convert___VOID__SZARRAY_U1__I4__I4__SZARRAY_CHAR__I4__I4__BOOLEAN__BYREF_I4__BYREF_I4__BYREF_BOOLEANER17CLR_RT_StackFrame
08055a00 T _ZN45Library_corlib_native_System_Threading_Thread11Join___VOIDER17CLR_RT_StackFrame
080557cc T _ZN45Library_corlib_native_System_Threading_Thread12Abort___VOIDER17CLR_RT_StackFrame
08055768 T _ZN45Library_corlib_native_System_Threading_Thread12Start___VOIDER17CLR_RT_StackFrame
08055840 T _ZN45Library_corlib_native_System_Threading_Thread13Resume___VOIDER17CLR_RT_StackFrame
080557f8 T _ZN45Library_corlib_native_System_Threading_Thread14Suspend___VOIDER17CLR_RT_StackFrame
080556f0 T _ZN45Library_corlib_native_System_Threading_Thread18GetThreadReferenceER17CLR_RT_StackFrame
08055a1c T _ZN45Library_corlib_native_System_Threading_Thread18Join___BOOLEAN__I4ER17CLR_RT_StackFrame
08055700 T _ZN45Library_corlib_native_System_Threading_Thread20ResetThreadReferenceER17CLR_RT_StackFrame
0805590c T _ZN45Library_corlib_native_System_Threading_Thread21get_IsAlive___BOOLEANER17CLR_RT_StackFrame
08051088 T _ZN45Library_corlib_native_System_Threading_Thread24get_ManagedThreadId___I4ER17CLR_RT_StackFrame
08052d28 T _ZN45Library_corlib_native_System_Threading_Thread24Sleep___STATIC__VOID__I4ER17CLR_RT_StackFrame
08055d18 T _ZN45Library_corlib_native_System_Threading_Thread30Join___BOOLEAN__SystemTimeSpanER17CLR_RT_StackFrame
08050e08 T _ZN45Library_corlib_native_System_Threading_Thread35GetDomain___STATIC__SystemAppDomainER17CLR_RT_StackFrame
08052c18 T _ZN45Library_corlib_native_System_Threading_Thread40_ctor___VOID__SystemThreadingThreadStartER17CLR_RT_StackFrame
08055860 T _ZN45Library_corlib_native_System_Threading_Thread44get_Priority___SystemThreadingThreadPriorityER17CLR_RT_StackFrame
0805593c T _ZN45Library_corlib_native_System_Threading_Thread44get_ThreadState___SystemThreadingThreadStateER17CLR_RT_StackFrame
08052c64 T _ZN45Library_corlib_native_System_Threading_Thread49get_CurrentThread___STATIC__SystemThreadingThreadER17CLR_RT_StackFrame
0805599c T _ZN45Library_corlib_native_System_Threading_Thread4JoinER17CLR_RT_StackFrameRKx
080558ac T _ZN45Library_corlib_native_System_Threading_Thread50set_Priority___VOID__SystemThreadingThreadPriorityER17CLR_RT_StackFrame
0805572c T _ZN45Library_corlib_native_System_Threading_Thread9GetThreadER17CLR_RT_StackFrameRP13CLR_RT_Threadbb
08055710 T _ZN45Library_corlib_native_System_Threading_Thread9SetThreadER17CLR_RT_StackFrameP13CLR_RT_Thread
0805dfa4 T _ZN45Library_SamrakshEmote_Samraksh_eMote_Platform59GetPlatformTypeInternal___STATIC__SamraksheMotePLATFORMTYPEER17CLR_RT_StackFrame
08058f04 T _ZN45Library_spot_native_Microsoft_SPOT_Reflection116GetAssemblyMemoryInfo___STATIC__BOOLEAN__mscorlibSystemReflectionAssembly__MicrosoftSPOTReflectionAssemblyMemoryInfoER17CLR_RT_StackFrame
080589a4 T _ZN45Library_spot_native_Microsoft_SPOT_Reflection44GetTypeHash___STATIC__U4__mscorlibSystemTypeER17CLR_RT_StackFrame
08059170 T _ZN45Library_spot_native_Microsoft_SPOT_Reflection48GetTypeFromHash___STATIC__mscorlibSystemType__U4ER17CLR_RT_StackFrame
08058d90 T _ZN45Library_spot_native_Microsoft_SPOT_Reflection50IsTypeLoaded___STATIC__BOOLEAN__mscorlibSystemTypeER17CLR_RT_StackFrame
0805bc00 T _ZN45Library_spot_native_Microsoft_SPOT_Reflection58Serialize___STATIC__SZARRAY_U1__OBJECT__mscorlibSystemTypeER17CLR_RT_StackFrame
0805bc08 T _ZN45Library_spot_native_Microsoft_SPOT_Reflection60Deserialize___STATIC__OBJECT__SZARRAY_U1__mscorlibSystemTypeER17CLR_RT_StackFrame
08058db0 T _ZN45Library_spot_native_Microsoft_SPOT_Reflection62GetAssemblyHash___STATIC__U4__mscorlibSystemReflectionAssemblyER17CLR_RT_StackFrame
08058ddc T _ZN45Library_spot_native_Microsoft_SPOT_Reflection64GetAssemblies___STATIC__SZARRAY_mscorlibSystemReflectionAssemblyER17CLR_RT_StackFrame
080591d8 T _ZN45Library_spot_native_Microsoft_SPOT_Reflection66GetAssemblyFromHash___STATIC__mscorlibSystemReflectionAssembly__U4ER17CLR_RT_StackFrame
08058e1c T _ZN45Library_spot_native_Microsoft_SPOT_Reflection82GetAssemblyInfo___STATIC__BOOLEAN__SZARRAY_U1__MicrosoftSPOTReflectionAssemblyInfoER17CLR_RT_StackFrame
08058c64 T _ZN45Library_spot_native_Microsoft_SPOT_Reflection86GetTypesImplementingInterface___STATIC__SZARRAY_mscorlibSystemType__mscorlibSystemTypeER17CLR_RT_StackFrame
0805181c T _ZN46Library_corlib_native_System_Collections_Queue12Clear___VOIDER17CLR_RT_StackFrame
08051878 T _ZN46Library_corlib_native_System_Collections_Queue13Peek___OBJECTER17CLR_RT_StackFrame
08051848 T _ZN46Library_corlib_native_System_Collections_Queue16Dequeue___OBJECTER17CLR_RT_StackFrame
08051830 T _ZN46Library_corlib_native_System_Collections_Queue22Enqueue___VOID__OBJECTER17CLR_RT_StackFrame
080517fc T _ZN46Library_corlib_native_System_Collections_Queue30CopyTo___VOID__SystemArray__I4ER17CLR_RT_StackFrame
080518a8 T _ZN46Library_corlib_native_System_Collections_Stack12Clear___VOIDER17CLR_RT_StackFrame
080518ec T _ZN46Library_corlib_native_System_Collections_Stack12Pop___OBJECTER17CLR_RT_StackFrame
080518bc T _ZN46Library_corlib_native_System_Collections_Stack13Peek___OBJECTER17CLR_RT_StackFrame
0805191c T _ZN46Library_corlib_native_System_Collections_Stack19Push___VOID__OBJECTER17CLR_RT_StackFrame
080519b4 T _ZN46Library_corlib_native_System_MulticastDelegate79op_Equality___STATIC__BOOLEAN__SystemMulticastDelegate__SystemMulticastDelegateER17CLR_RT_StackFrame
08051a88 T _ZN46Library_corlib_native_System_MulticastDelegate81op_Inequality___STATIC__BOOLEAN__SystemMulticastDelegate__SystemMulticastDelegateER17CLR_RT_StackFrame
08055600 T _ZN46Library_corlib_native_System_Text_UTF8Encoding16Helper__GetCharsER17CLR_RT_StackFrameb
0805253c T _ZN46Library_corlib_native_System_Text_UTF8Encoding29GetBytes___SZARRAY_U1__STRINGER17CLR_RT_StackFrame
080556d0 T _ZN46Library_corlib_native_System_Text_UTF8Encoding35GetChars___SZARRAY_CHAR__SZARRAY_U1ER17CLR_RT_StackFrame
080556e0 T _ZN46Library_corlib_native_System_Text_UTF8Encoding43GetChars___SZARRAY_CHAR__SZARRAY_U1__I4__I4ER17CLR_RT_StackFrame
080524b8 T _ZN46Library_corlib_native_System_Text_UTF8Encoding45GetBytes___I4__STRING__I4__I4__SZARRAY_U1__I4ER17CLR_RT_StackFrame
08052bf0 T _ZN46Library_corlib_native_System_Threading_Monitor27Exit___STATIC__VOID__OBJECTER17CLR_RT_StackFrame
08052b90 T _ZN46Library_corlib_native_System_Threading_Monitor28Enter___STATIC__VOID__OBJECTER17CLR_RT_StackFrame
08059294 T _ZN47Library_spot_native_Microsoft_SPOT_WeakDelegate87Remove___STATIC__mscorlibSystemDelegate__mscorlibSystemDelegate__mscorlibSystemDelegateER17CLR_RT_StackFrame
0805926c T _ZN47Library_spot_native_Microsoft_SPOT_WeakDelegate88Combine___STATIC__mscorlibSystemDelegate__mscorlibSystemDelegate__mscorlibSystemDelegateER17CLR_RT_StackFrame
08053cac T _ZN48Library_corlib_native_System_Reflection_Assembly17GetTypeDescriptorER16CLR_RT_HeapBlockR24CLR_RT_Assembly_Instance
08053cc0 T _ZN48Library_corlib_native_System_Reflection_Assembly21get_FullName___STRINGER17CLR_RT_StackFrame
08053d1c T _ZN48Library_corlib_native_System_Reflection_Assembly28GetType___SystemType__STRINGER17CLR_RT_StackFrame
08053db8 T _ZN48Library_corlib_native_System_Reflection_Assembly29GetTypes___SZARRAY_SystemTypeER17CLR_RT_StackFrame
08053e88 T _ZN48Library_corlib_native_System_Reflection_Assembly41GetManifestResourceNames___SZARRAY_STRINGER17CLR_RT_StackFrame
080525ac T _ZN48Library_corlib_native_System_Reflection_Assembly51Load___STATIC__SystemReflectionAssembly__SZARRAY_U1ER17CLR_RT_StackFrame
08050da8 T _ZN48Library_corlib_native_System_Reflection_Assembly55GetExecutingAssembly___STATIC__SystemReflectionAssemblyER17CLR_RT_StackFrame
08053e40 T _ZN48Library_corlib_native_System_Reflection_Assembly57GetVersion___VOID__BYREF_I4__BYREF_I4__BYREF_I4__BYREF_I4ER17CLR_RT_StackFrame
08050e3c T _ZN48Library_corlib_native_System_Reflection_Assembly80LoadInternal___STATIC__SystemReflectionAssembly__STRING__BOOLEAN__I4__I4__I4__I4ER17CLR_RT_StackFrame
08059458 T _ZN48Library_spot_native_Microsoft_SPOT_ExtendedTimer106_ctor___VOID__mscorlibSystemThreadingTimerCallback__OBJECT__mscorlibSystemDateTime__mscorlibSystemTimeSpanER17CLR_RT_StackFrame
0805944c T _ZN48Library_spot_native_Microsoft_SPOT_ExtendedTimer106_ctor___VOID__mscorlibSystemThreadingTimerCallback__OBJECT__mscorlibSystemTimeSpan__mscorlibSystemTimeSpanER17CLR_RT_StackFrame
08059430 T _ZN48Library_spot_native_Microsoft_SPOT_ExtendedTimer14Dispose___VOIDER17CLR_RT_StackFrame
08059480 T _ZN48Library_spot_native_Microsoft_SPOT_ExtendedTimer21Change___VOID__I4__I4ER17CLR_RT_StackFrame
080587b4 T _ZN48Library_spot_native_Microsoft_SPOT_ExtendedTimer43get_LastExpiration___mscorlibSystemTimeSpanER17CLR_RT_StackFrame
08059498 T _ZN48Library_spot_native_Microsoft_SPOT_ExtendedTimer61Change___VOID__mscorlibSystemDateTime__mscorlibSystemTimeSpanER17CLR_RT_StackFrame
0805948c T _ZN48Library_spot_native_Microsoft_SPOT_ExtendedTimer61Change___VOID__mscorlibSystemTimeSpan__mscorlibSystemTimeSpanER17CLR_RT_StackFrame
08059440 T _ZN48Library_spot_native_Microsoft_SPOT_ExtendedTimer66_ctor___VOID__mscorlibSystemThreadingTimerCallback__OBJECT__I4__I4ER17CLR_RT_StackFrame
08059464 T _ZN48Library_spot_native_Microsoft_SPOT_ExtendedTimer96_ctor___VOID__mscorlibSystemThreadingTimerCallback__OBJECT__MicrosoftSPOTExtendedTimerTimeEventsER17CLR_RT_StackFrame
08059428 T _ZN48Library_spot_native_Microsoft_SPOT_ExtendedTimer9SetValuesER17CLR_RT_StackFramej
08051aa8 T _ZN49Library_corlib_native_System_Diagnostics_Debugger20Break___STATIC__VOIDER17CLR_RT_StackFrame
08051450 T _ZN49Library_corlib_native_System_Diagnostics_Debugger32get_IsAttached___STATIC__BOOLEANER17CLR_RT_StackFrame
08054174 T _ZN49Library_corlib_native_System_Reflection_FieldInfo10InitializeER17CLR_RT_StackFrameR24CLR_RT_FieldDef_InstanceR23CLR_RT_TypeDef_InstanceRP16CLR_RT_HeapBlock
08054208 T _ZN49Library_corlib_native_System_Reflection_FieldInfo31SetValue___VOID__OBJECT__OBJECTER17CLR_RT_StackFrame
08055b5c T _ZN49Library_corlib_native_System_Threading_WaitHandle30WaitOne___BOOLEAN__I4__BOOLEANER17CLR_RT_StackFrame
08055ac4 T _ZN49Library_corlib_native_System_Threading_WaitHandle3SetER17CLR_RT_StackFrame
08055b24 T _ZN49Library_corlib_native_System_Threading_WaitHandle4WaitER17CLR_RT_StackFrameR16CLR_RT_HeapBlockS3_PS2_ib
08055af4 T _ZN49Library_corlib_native_System_Threading_WaitHandle5ResetER17CLR_RT_StackFrame
08055b98 T _ZN49Library_corlib_native_System_Threading_WaitHandle82WaitMultiple___STATIC__I4__SZARRAY_SystemThreadingWaitHandle__I4__BOOLEAN__BOOLEANER17CLR_RT_StackFrame
080517a0 T _ZN50Library_corlib_native_System_Collections_ArrayList12Clear___VOIDER17CLR_RT_StackFrame
08051770 T _ZN50Library_corlib_native_System_Collections_ArrayList16Add___I4__OBJECTER17CLR_RT_StackFrame
080517cc T _ZN50Library_corlib_native_System_Collections_ArrayList19RemoveAt___VOID__I4ER17CLR_RT_StackFrame
08051728 T _ZN50Library_corlib_native_System_Collections_ArrayList21get_Item___OBJECT__I4ER17CLR_RT_StackFrame
080517e4 T _ZN50Library_corlib_native_System_Collections_ArrayList22SetCapacity___VOID__I4ER17CLR_RT_StackFrame
080517b4 T _ZN50Library_corlib_native_System_Collections_ArrayList25Insert___VOID__I4__OBJECTER17CLR_RT_StackFrame
08051758 T _ZN50Library_corlib_native_System_Collections_ArrayList27set_Item___VOID__I4__OBJECTER17CLR_RT_StackFrame
08054638 T _ZN50Library_corlib_native_System_Reflection_MethodBase10CheckFlagsER17CLR_RT_StackFramejj
08054538 T _ZN50Library_corlib_native_System_Reflection_MethodBase17get_Name___STRINGER17CLR_RT_StackFrame
080544a4 T _ZN50Library_corlib_native_System_Reflection_MethodBase19GetMethodDescriptorER17CLR_RT_StackFrameR16CLR_RT_HeapBlockR25CLR_RT_MethodDef_Instance
08054684 T _ZN50Library_corlib_native_System_Reflection_MethodBase21get_IsFinal___BOOLEANER17CLR_RT_StackFrame
0805466c T _ZN50Library_corlib_native_System_Reflection_MethodBase22get_IsPublic___BOOLEANER17CLR_RT_StackFrame
08054678 T _ZN50Library_corlib_native_System_Reflection_MethodBase22get_IsStatic___BOOLEANER17CLR_RT_StackFrame
08054690 T _ZN50Library_corlib_native_System_Reflection_MethodBase23get_IsVirtual___BOOLEANER17CLR_RT_StackFrame
0805469c T _ZN50Library_corlib_native_System_Reflection_MethodBase24get_IsAbstract___BOOLEANER17CLR_RT_StackFrame
08054570 T _ZN50Library_corlib_native_System_Reflection_MethodBase30get_DeclaringType___SystemTypeER17CLR_RT_StackFrame
080544bc T _ZN50Library_corlib_native_System_Reflection_MethodBase39Invoke___OBJECT__OBJECT__SZARRAY_OBJECTER17CLR_RT_StackFrame
08052aec T _ZN50Library_corlib_native_System_Threading_Interlocked32Decrement___STATIC__I4__BYREF_I4ER17CLR_RT_StackFrame
08052ab8 T _ZN50Library_corlib_native_System_Threading_Interlocked32Increment___STATIC__I4__BYREF_I4ER17CLR_RT_StackFrame
08052b20 T _ZN50Library_corlib_native_System_Threading_Interlocked35Exchange___STATIC__I4__BYREF_I4__I4ER17CLR_RT_StackFrame
08052b54 T _ZN50Library_corlib_native_System_Threading_Interlocked46CompareExchange___STATIC__I4__BYREF_I4__I4__I4ER17CLR_RT_StackFrame
0805e3b4 T _ZN50Library_SamrakshEmote_Samraksh_eMote_RadarInternal21Init___STATIC__I4__I4ER17CLR_RT_StackFrame
0805e334 T _ZN50Library_SamrakshEmote_Samraksh_eMote_RadarInternal23GetCountOverTarget___I4ER17CLR_RT_StackFrame
0805e3ec T _ZN50Library_SamrakshEmote_Samraksh_eMote_RadarInternal24Uninit___STATIC__BOOLEANER17CLR_RT_StackFrame
0805e1e0 T _ZN50Library_SamrakshEmote_Samraksh_eMote_RadarInternal32GetWindowOverThreshold___BOOLEANER17CLR_RT_StackFrame
0805e218 T _ZN50Library_SamrakshEmote_Samraksh_eMote_RadarInternal34CurrentDetectionFinished___BOOLEANER17CLR_RT_StackFrame
0805e36c T _ZN50Library_SamrakshEmote_Samraksh_eMote_RadarInternal39SetProcessingInProgress___VOID__BOOLEANER17CLR_RT_StackFrame
0805e250 T _ZN50Library_SamrakshEmote_Samraksh_eMote_RadarInternal57GetNetDisplacement___I4__SamraksheMoteSAMPLEWINDOWPORTIONER17CLR_RT_StackFrame
0805e2e8 T _ZN50Library_SamrakshEmote_Samraksh_eMote_RadarInternal59GetDisplacementRange___I4__SamraksheMoteSAMPLEWINDOWPORTIONER17CLR_RT_StackFrame
0805e29c T _ZN50Library_SamrakshEmote_Samraksh_eMote_RadarInternal62GetAbsoluteDisplacement___I4__SamraksheMoteSAMPLEWINDOWPORTIONER17CLR_RT_StackFrame
0805e158 T _ZN50Library_SamrakshEmote_Samraksh_eMote_RadarInternal67ConfigureFPGADetectionPrivate___BOOLEAN__SZARRAY_U2__SZARRAY_U2__U4ER17CLR_RT_StackFrame
08059264 T _ZN50Library_spot_native_Microsoft_SPOT_ResourceUtility83set_CurrentUICultureInternal___STATIC__VOID__mscorlibSystemGlobalizationCultureInfoER17CLR_RT_StackFrame
08059254 T _ZN50Library_spot_native_Microsoft_SPOT_ResourceUtility86GetObject___STATIC__OBJECT__mscorlibSystemResourcesResourceManager__mscorlibSystemEnumER17CLR_RT_StackFrame
0805925c T _ZN50Library_spot_native_Microsoft_SPOT_ResourceUtility94GetObject___STATIC__OBJECT__mscorlibSystemResourcesResourceManager__mscorlibSystemEnum__I4__I4ER17CLR_RT_StackFrame
0805e040 T _ZN51Library_SamrakshEmote_Samraksh_eMote_RadarInterface15Blind___BOOLEANER17CLR_RT_StackFrame
0805dfd0 T _ZN51Library_SamrakshEmote_Samraksh_eMote_RadarInterface16TurnOn___BOOLEANER17CLR_RT_StackFrame
0805e008 T _ZN51Library_SamrakshEmote_Samraksh_eMote_RadarInterface17TurnOff___BOOLEANER17CLR_RT_StackFrame
08059534 T _ZN51Library_spot_native_Microsoft_SPOT_Hardware_Utility13CombineArraysER17CLR_RT_StackFrameR16CLR_RT_HeapBlockiiS3_ii
08058b78 T _ZN51Library_spot_native_Microsoft_SPOT_Hardware_Utility28Piezo___STATIC__VOID__U4__U4ER17CLR_RT_StackFrame
080594a4 T _ZN51Library_spot_native_Microsoft_SPOT_Hardware_Utility29InsertOrExtractValueFromArrayER17CLR_RT_StackFrameb
08058b88 T _ZN51Library_spot_native_Microsoft_SPOT_Hardware_Utility33Backlight___STATIC__VOID__BOOLEANER17CLR_RT_StackFrame
08058a0c T _ZN51Library_spot_native_Microsoft_SPOT_Hardware_Utility47ComputeCRC___STATIC__U4__SZARRAY_U1__I4__I4__U4ER17CLR_RT_StackFrame
08058b64 T _ZN51Library_spot_native_Microsoft_SPOT_Hardware_Utility47GetMachineTime___STATIC__mscorlibSystemTimeSpanER17CLR_RT_StackFrame
08058ad8 T _ZN51Library_spot_native_Microsoft_SPOT_Hardware_Utility51SetLocalTime___STATIC__VOID__mscorlibSystemDateTimeER17CLR_RT_StackFrame
0805951c T _ZN51Library_spot_native_Microsoft_SPOT_Hardware_Utility54ExtractValueFromArray___STATIC__U4__SZARRAY_U1__I4__I4ER17CLR_RT_StackFrame
080595fc T _ZN51Library_spot_native_Microsoft_SPOT_Hardware_Utility58CombineArrays___STATIC__SZARRAY_U1__SZARRAY_U1__SZARRAY_U1ER17CLR_RT_StackFrame
08059528 T _ZN51Library_spot_native_Microsoft_SPOT_Hardware_Utility59InsertValueIntoArray___STATIC__VOID__SZARRAY_U1__I4__I4__U4ER17CLR_RT_StackFrame
08058a78 T _ZN51Library_spot_native_Microsoft_SPOT_Hardware_Utility62ExtractRangeFromArray___STATIC__SZARRAY_U1__SZARRAY_U1__I4__I4ER17CLR_RT_StackFrame
0805961c T _ZN51Library_spot_native_Microsoft_SPOT_Hardware_Utility74CombineArrays___STATIC__SZARRAY_U1__SZARRAY_U1__I4__I4__SZARRAY_U1__I4__I4ER17CLR_RT_StackFrame
080527d0 T _ZN52Library_corlib_native_System_Reflection_PropertyInfo41GetValue___OBJECT__OBJECT__SZARRAY_OBJECTER17CLR_RT_StackFrame
080527d8 T _ZN52Library_corlib_native_System_Reflection_PropertyInfo47SetValue___VOID__OBJECT__OBJECT__SZARRAY_OBJECTER17CLR_RT_StackFrame
08055adc T _ZN53Library_corlib_native_System_Threading_AutoResetEvent13Set___BOOLEANER17CLR_RT_StackFrame
08055b0c T _ZN53Library_corlib_native_System_Threading_AutoResetEvent15Reset___BOOLEANER17CLR_RT_StackFrame
08050cf8 T _ZN53Library_corlib_native_System_Threading_AutoResetEvent21_ctor___VOID__BOOLEANER17CLR_RT_StackFrame
0805bd94 T _ZN53Library_Samraksh_eMote_Net_Samraksh_eMote_Net_MACBase27PendingSendPacketCount___U1ER17CLR_RT_StackFrame
0805bd5c T _ZN53Library_Samraksh_eMote_Net_Samraksh_eMote_Net_MACBase30PendingReceivePacketCount___U1ER17CLR_RT_StackFrame
0805bd24 T _ZN53Library_Samraksh_eMote_Net_Samraksh_eMote_Net_MACBase43RemovePacket___SamraksheMoteNetDeviceStatusER17CLR_RT_StackFrame
0805be68 T _ZN53Library_Samraksh_eMote_Net_Samraksh_eMote_Net_MACBase43UnInitialize___SamraksheMoteNetDeviceStatusER17CLR_RT_StackFrame
0805c210 T _ZN53Library_Samraksh_eMote_Net_Samraksh_eMote_Net_MACBase46EnqueueToSend___U2__U2__U1__SZARRAY_U1__U2__U2ER17CLR_RT_StackFrame
0805c2c4 T _ZN53Library_Samraksh_eMote_Net_Samraksh_eMote_Net_MACBase50EnqueueToSend___U2__U2__U1__SZARRAY_U1__U2__U2__U4ER17CLR_RT_StackFrame
0805bf60 T _ZN53Library_Samraksh_eMote_Net_Samraksh_eMote_Net_MACBase56GetNextPacket___SamraksheMoteNetDeviceStatus__SZARRAY_U1ER17CLR_RT_StackFrame
0805bdcc T _ZN53Library_Samraksh_eMote_Net_Samraksh_eMote_Net_MACBase58Send___SamraksheMoteNetNetOpStatus__U2__SZARRAY_U1__U2__U2ER17CLR_RT_StackFrame
0805bf0c T _ZN53Library_Samraksh_eMote_Net_Samraksh_eMote_Net_MACBase62InternalReConfigure___SamraksheMoteNetDeviceStatus__SZARRAY_U1ER17CLR_RT_StackFrame
0805c38c T _ZN53Library_Samraksh_eMote_Net_Samraksh_eMote_Net_MACBase62Send___SamraksheMoteNetNetOpStatus__U2__SZARRAY_U1__U2__U2__U4ER17CLR_RT_StackFrame
0805c43c T _ZN53Library_Samraksh_eMote_Net_Samraksh_eMote_Net_MACBase62Send___SamraksheMoteNetNetOpStatus__U2__U1__SZARRAY_U1__U2__U2ER17CLR_RT_StackFrame
0805c0c8 T _ZN53Library_Samraksh_eMote_Net_Samraksh_eMote_Net_MACBase64DeletePacketWithIndexInternal___SamraksheMoteNetDeviceStatus__U2ER17CLR_RT_StackFrame
0805bea0 T _ZN53Library_Samraksh_eMote_Net_Samraksh_eMote_Net_MACBase65InternalInitialize___SamraksheMoteNetDeviceStatus__SZARRAY_U1__U1ER17CLR_RT_StackFrame
0805bfb4 T _ZN53Library_Samraksh_eMote_Net_Samraksh_eMote_Net_MACBase66GetNeighborInternal___SamraksheMoteNetDeviceStatus__U2__SZARRAY_U1ER17CLR_RT_StackFrame
0805c020 T _ZN53Library_Samraksh_eMote_Net_Samraksh_eMote_Net_MACBase66GetNeighborListInternal___SamraksheMoteNetDeviceStatus__SZARRAY_U2ER17CLR_RT_StackFrame
0805c4f0 T _ZN53Library_Samraksh_eMote_Net_Samraksh_eMote_Net_MACBase66Send___SamraksheMoteNetNetOpStatus__U2__U1__SZARRAY_U1__U2__U2__U4ER17CLR_RT_StackFrame
0805c19c T _ZN53Library_Samraksh_eMote_Net_Samraksh_eMote_Net_MACBase67GetPacketSizeWithIndex___SamraksheMoteNetDeviceStatus__BYREF_U1__U2ER17CLR_RT_StackFrame
0805c074 T _ZN53Library_Samraksh_eMote_Net_Samraksh_eMote_Net_MACBase69GetMACNeighborListInternal___SamraksheMoteNetDeviceStatus__SZARRAY_U2ER17CLR_RT_StackFrame
0805c118 T _ZN53Library_Samraksh_eMote_Net_Samraksh_eMote_Net_MACBase69GetPacketWithIndex___SamraksheMoteNetDeviceStatus__SZARRAY_U1__U1__U2ER17CLR_RT_StackFrame
0805ea58 T _ZN53Library_SamrakshEmoteDotNow_Samraksh_eMote_DotNow_NOR36InternalInitialize___STATIC__BOOLEANER17CLR_RT_StackFrame
0805eb68 T _ZN53Library_SamrakshEmoteDotNow_Samraksh_eMote_DotNow_NOR74InternalRead___STATIC__SamraksheMoteDotNowDeviceStatus__SZARRAY_U2__U4__U2ER17CLR_RT_StackFrame
0805ea84 T _ZN53Library_SamrakshEmoteDotNow_Samraksh_eMote_DotNow_NOR75InternalWrite___STATIC__SamraksheMoteDotNowDeviceStatus__SZARRAY_U2__U4__U2ER17CLR_RT_StackFrame
0805eaec T _ZN53Library_SamrakshEmoteDotNow_Samraksh_eMote_DotNow_NOR79InternalWrite___STATIC__SamraksheMoteDotNowDeviceStatus__SZARRAY_U2__U4__U2__U2ER17CLR_RT_StackFrame
08059c58 T _ZN53Library_spot_hardware_native_Microsoft_SPOT_EventSink18EventConfig___VOIDER17CLR_RT_StackFrame
0805b60c T _ZN53Library_spot_native_Microsoft_SPOT_Messaging_EndPoint36_ctor___VOID__mscorlibSystemType__U4ER17CLR_RT_StackFrame
0805b61c T _ZN53Library_spot_native_Microsoft_SPOT_Messaging_EndPoint43Check___BOOLEAN__mscorlibSystemType__U4__I4ER17CLR_RT_StackFrame
0805b614 T _ZN53Library_spot_native_Microsoft_SPOT_Messaging_EndPoint46GetMessage___MicrosoftSPOTMessagingMessage__I4ER17CLR_RT_StackFrame
0805b62c T _ZN53Library_spot_native_Microsoft_SPOT_Messaging_EndPoint58ReplyRaw___VOID__MicrosoftSPOTMessagingMessage__SZARRAY_U1ER17CLR_RT_StackFrame
0805b624 T _ZN53Library_spot_native_Microsoft_SPOT_Messaging_EndPoint67SendMessageRaw___SZARRAY_U1__mscorlibSystemType__U4__I4__SZARRAY_U1ER17CLR_RT_StackFrame
08050d28 T _ZN54Library_corlib_native_System_Globalization_CultureInfo69get_CurrentUICultureInternal___STATIC__SystemGlobalizationCultureInfoER17CLR_RT_StackFrame
08050cd4 T _ZN54Library_corlib_native_System_Globalization_CultureInfo75set_CurrentUICultureInternal___STATIC__VOID__SystemGlobalizationCultureInfoER17CLR_RT_StackFrame
08053f60 T _ZN54Library_corlib_native_System_Resources_ResourceManager30GetObjectInternal___OBJECT__I2ER17CLR_RT_StackFrame
08054088 T _ZN54Library_corlib_native_System_Resources_ResourceManager38GetObjectInternal___OBJECT__I2__I4__I4ER17CLR_RT_StackFrame
08053f04 T _ZN54Library_corlib_native_System_Resources_ResourceManager59FindResource___STATIC__I4__STRING__SystemReflectionAssemblyER17CLR_RT_StackFrame
080526dc T _ZN54Library_corlib_native_System_Resources_ResourceManager70GetObject___STATIC__OBJECT__SystemResourcesResourceManager__SystemEnumER17CLR_RT_StackFrame
080547b8 T _ZN54Library_corlib_native_System_Resources_ResourceManager78GetObject___STATIC__OBJECT__SystemResourcesResourceManager__SystemEnum__I4__I4ER17CLR_RT_StackFrame
0805edf8 T _ZN54Library_SamrakshEmoteDSP_Samraksh_eMote_DSP_Statistics20Sum___U8__SZARRAY_U1ER17CLR_RT_StackFrame
0805ee50 T _ZN54Library_SamrakshEmoteDSP_Samraksh_eMote_DSP_Statistics20Sum___U8__SZARRAY_U2ER17CLR_RT_StackFrame
0805eea8 T _ZN54Library_SamrakshEmoteDSP_Samraksh_eMote_DSP_Statistics20Sum___U8__SZARRAY_U4ER17CLR_RT_StackFrame
0805ef00 T _ZN54Library_SamrakshEmoteDSP_Samraksh_eMote_DSP_Statistics20Sum___U8__SZARRAY_U8ER17CLR_RT_StackFrame
0805f0ac T _ZN54Library_SamrakshEmoteDSP_Samraksh_eMote_DSP_Statistics21Mode___U1__SZARRAY_U1ER17CLR_RT_StackFrame
0805f100 T _ZN54Library_SamrakshEmoteDSP_Samraksh_eMote_DSP_Statistics21Mode___U2__SZARRAY_U2ER17CLR_RT_StackFrame
0805f154 T _ZN54Library_SamrakshEmoteDSP_Samraksh_eMote_DSP_Statistics21Mode___U4__SZARRAY_U4ER17CLR_RT_StackFrame
0805f1a8 T _ZN54Library_SamrakshEmoteDSP_Samraksh_eMote_DSP_Statistics21Mode___U8__SZARRAY_U8ER17CLR_RT_StackFrame
0805ef58 T _ZN54Library_SamrakshEmoteDSP_Samraksh_eMote_DSP_Statistics23Median___U1__SZARRAY_U1ER17CLR_RT_StackFrame
0805efac T _ZN54Library_SamrakshEmoteDSP_Samraksh_eMote_DSP_Statistics23Median___U2__SZARRAY_U2ER17CLR_RT_StackFrame
0805f000 T _ZN54Library_SamrakshEmoteDSP_Samraksh_eMote_DSP_Statistics23Median___U4__SZARRAY_U4ER17CLR_RT_StackFrame
0805f054 T _ZN54Library_SamrakshEmoteDSP_Samraksh_eMote_DSP_Statistics23Median___U8__SZARRAY_U8ER17CLR_RT_StackFrame
0805f200 T _ZN54Library_SamrakshEmoteDSP_Samraksh_eMote_DSP_Statistics25Variance___R8__SZARRAY_U1ER17CLR_RT_StackFrame
0805f258 T _ZN54Library_SamrakshEmoteDSP_Samraksh_eMote_DSP_Statistics25Variance___R8__SZARRAY_U2ER17CLR_RT_StackFrame
0805f2b0 T _ZN54Library_SamrakshEmoteDSP_Samraksh_eMote_DSP_Statistics25Variance___R8__SZARRAY_U4ER17CLR_RT_StackFrame
0805f308 T _ZN54Library_SamrakshEmoteDSP_Samraksh_eMote_DSP_Statistics25Variance___R8__SZARRAY_U8ER17CLR_RT_StackFrame
0805f504 T _ZN54Library_SamrakshEmoteDSP_Samraksh_eMote_DSP_Transforms41FFT___BOOLEAN__SZARRAY_I2__SZARRAY_I2__U2ER17CLR_RT_StackFrame
0805f360 T _ZN54Library_SamrakshEmoteDSP_Samraksh_eMote_DSP_Transforms41FFT___BOOLEAN__SZARRAY_U1__SZARRAY_U1__U2ER17CLR_RT_StackFrame
0805f3ec T _ZN54Library_SamrakshEmoteDSP_Samraksh_eMote_DSP_Transforms41FFT___BOOLEAN__SZARRAY_U2__SZARRAY_U2__U2ER17CLR_RT_StackFrame
0805f478 T _ZN54Library_SamrakshEmoteDSP_Samraksh_eMote_DSP_Transforms41FFT___BOOLEAN__SZARRAY_U4__SZARRAY_U4__U2ER17CLR_RT_StackFrame
0805f590 T _ZN54Library_SamrakshEmoteDSP_Samraksh_eMote_DSP_Transforms42IFFT___BOOLEAN__SZARRAY_U1__SZARRAY_U1__U2ER17CLR_RT_StackFrame
0805f61c T _ZN54Library_SamrakshEmoteDSP_Samraksh_eMote_DSP_Transforms42IFFT___BOOLEAN__SZARRAY_U2__SZARRAY_U2__U2ER17CLR_RT_StackFrame
0805f6a8 T _ZN54Library_SamrakshEmoteDSP_Samraksh_eMote_DSP_Transforms42IFFT___BOOLEAN__SZARRAY_U4__SZARRAY_U4__U2ER17CLR_RT_StackFrame
0805870c T _ZN54Library_spot_native_Microsoft_SPOT_ExecutionConstraint30Install___STATIC__VOID__I4__I4ER17CLR_RT_StackFrame
08058c24 T _ZN54Library_spot_native_Microsoft_SPOT_Hardware_SystemInfo30get_OEMString___STATIC__STRINGER17CLR_RT_StackFrame
08058c3c T _ZN54Library_spot_native_Microsoft_SPOT_Hardware_SystemInfo33get_IsBigEndian___STATIC__BOOLEANER17CLR_RT_StackFrame
08058b9c T _ZN54Library_spot_native_Microsoft_SPOT_Hardware_SystemInfo71GetSystemVersion___STATIC__VOID__BYREF_I4__BYREF_I4__BYREF_I4__BYREF_I4ER17CLR_RT_StackFrame
08052684 T _ZN55Library_corlib_native_System_Reflection_ConstructorInfo31Invoke___OBJECT__SZARRAY_OBJECTER17CLR_RT_StackFrame
08055ae8 T _ZN55Library_corlib_native_System_Threading_ManualResetEvent13Set___BOOLEANER17CLR_RT_StackFrame
08055b18 T _ZN55Library_corlib_native_System_Threading_ManualResetEvent15Reset___BOOLEANER17CLR_RT_StackFrame
08050d14 T _ZN55Library_corlib_native_System_Threading_ManualResetEvent21_ctor___VOID__BOOLEANER17CLR_RT_StackFrame
080546b8 T _ZN56Library_corlib_native_System_Reflection_RuntimeFieldInfo17get_Name___STRINGER17CLR_RT_StackFrame
080546ac T _ZN56Library_corlib_native_System_Reflection_RuntimeFieldInfo18GetFieldDescriptorER17CLR_RT_StackFrameR16CLR_RT_HeapBlockR24CLR_RT_FieldDef_Instance
080543cc T _ZN56Library_corlib_native_System_Reflection_RuntimeFieldInfo25GetValue___OBJECT__OBJECTER17CLR_RT_StackFrame
08054758 T _ZN56Library_corlib_native_System_Reflection_RuntimeFieldInfo26get_FieldType___SystemTypeER17CLR_RT_StackFrame
080546f4 T _ZN56Library_corlib_native_System_Reflection_RuntimeFieldInfo30get_DeclaringType___SystemTypeER17CLR_RT_StackFrame
0805a018 T _ZN56Library_spot_hardware_native_Microsoft_SPOT_Hardware_Cpu26get_SlowClock___STATIC__U4ER17CLR_RT_StackFrame
08059fac T _ZN56Library_spot_hardware_native_Microsoft_SPOT_Hardware_Cpu28get_SystemClock___STATIC__U4ER17CLR_RT_StackFrame
0805a030 T _ZN56Library_spot_hardware_native_Microsoft_SPOT_Hardware_Cpu53get_GlitchFilterTime___STATIC__mscorlibSystemTimeSpanER17CLR_RT_StackFrame
0805a084 T _ZN56Library_spot_hardware_native_Microsoft_SPOT_Hardware_Cpu59set_GlitchFilterTime___STATIC__VOID__mscorlibSystemTimeSpanER17CLR_RT_StackFrame
0805b0a8 T _ZN56Library_spot_hardware_native_Microsoft_SPOT_Hardware_SPI68InternalWriteRead___VOID__SZARRAY_U1__I4__I4__SZARRAY_U1__I4__I4__I4ER17CLR_RT_StackFrame
0805b028 T _ZN56Library_spot_hardware_native_Microsoft_SPOT_Hardware_SPI68InternalWriteRead___VOID__SZARRAY_U2__I4__I4__SZARRAY_U2__I4__I4__I4ER17CLR_RT_StackFrame
0805896c T _ZN56Library_spot_native_Microsoft_SPOT_ExtendedWeakReference11get_Id___U4ER17CLR_RT_StackFrame
08058988 T _ZN56Library_spot_native_Microsoft_SPOT_ExtendedWeakReference14get_Flags___U4ER17CLR_RT_StackFrame
08058640 T _ZN56Library_spot_native_Microsoft_SPOT_ExtendedWeakReference17get_Priority___I4ER17CLR_RT_StackFrame
080589e8 T _ZN56Library_spot_native_Microsoft_SPOT_ExtendedWeakReference23FlushAll___STATIC__VOIDER17CLR_RT_StackFrame
080589cc T _ZN56Library_spot_native_Microsoft_SPOT_ExtendedWeakReference23set_Priority___VOID__I4ER17CLR_RT_StackFrame
080585e8 T _ZN56Library_spot_native_Microsoft_SPOT_ExtendedWeakReference30PushBackIntoRecoverList___VOIDER17CLR_RT_StackFrame
08058834 T _ZN56Library_spot_native_Microsoft_SPOT_ExtendedWeakReference33get_Selector___mscorlibSystemTypeER17CLR_RT_StackFrame
080587e8 T _ZN56Library_spot_native_Microsoft_SPOT_ExtendedWeakReference48_ctor___VOID__OBJECT__mscorlibSystemType__U4__U4ER17CLR_RT_StackFrame
0805889c T _ZN56Library_spot_native_Microsoft_SPOT_ExtendedWeakReference76Recover___STATIC__MicrosoftSPOTExtendedWeakReference__mscorlibSystemType__U4ER17CLR_RT_StackFrame
08051c58 T _ZN57Library_corlib_native_System_Globalization_DateTimeFormat37FormatDigits___STATIC__STRING__I4__I4ER17CLR_RT_StackFrame
080545d0 T _ZN57Library_corlib_native_System_Reflection_RuntimeMethodInfo27get_ReturnType___SystemTypeER17CLR_RT_StackFrame
0805af3c T _ZN57Library_spot_hardware_native_Microsoft_SPOT_Hardware_Port11ChangeStateEP16CLR_RT_HeapBlockP38CLR_RT_HeapBlock_NativeEventDispatcherb
0805a8f4 T _ZN57Library_spot_hardware_native_Microsoft_SPOT_Hardware_Port129_ctor___VOID__MicrosoftSPOTHardwareCpuPin__BOOLEAN__MicrosoftSPOTHardwarePortResistorMode__MicrosoftSPOTHardwarePortInterruptModeER17CLR_RT_StackFrame
0805a734 T _ZN57Library_spot_hardware_native_Microsoft_SPOT_Hardware_Port12IsrProcedureEjjPv
0805a970 T _ZN57Library_spot_hardware_native_Microsoft_SPOT_Hardware_Port14Read___BOOLEANER17CLR_RT_StackFrame
0805b2c8 T _ZN57Library_spot_hardware_native_Microsoft_SPOT_Hardware_Port23Dispose___VOID__BOOLEANER17CLR_RT_StackFrame
08059ffc T _ZN57Library_spot_hardware_native_Microsoft_SPOT_Hardware_Port36get_Id___MicrosoftSPOTHardwareCpuPinER17CLR_RT_StackFrame
0805a8bc T _ZN57Library_spot_hardware_native_Microsoft_SPOT_Hardware_Port50_ctor___VOID__MicrosoftSPOTHardwareCpuPin__BOOLEANER17CLR_RT_StackFrame
0805a7a4 T _ZN57Library_spot_hardware_native_Microsoft_SPOT_Hardware_Port66ReservePin___STATIC__BOOLEAN__MicrosoftSPOTHardwareCpuPin__BOOLEANER17CLR_RT_StackFrame
0805a930 T _ZN57Library_spot_hardware_native_Microsoft_SPOT_Hardware_Port98_ctor___VOID__MicrosoftSPOTHardwareCpuPin__BOOLEAN__BOOLEAN__MicrosoftSPOTHardwarePortResistorModeER17CLR_RT_StackFrame
08030dcc T _ZN59Library_SamrakshEmoteRealtime_Samraksh_eMote_RealTime_Timer14Dispose___VOIDER17CLR_RT_StackFrame
08030dfc T _ZN59Library_SamrakshEmoteRealtime_Samraksh_eMote_RealTime_Timer24Change___BOOLEAN__U4__U4ER17CLR_RT_StackFrame
08030e5c T _ZN59Library_SamrakshEmoteRealtime_Samraksh_eMote_RealTime_Timer24GenerateInterrupt___VOIDER17CLR_RT_StackFrame
200040d8 V _ZN5RadioI23IEEE802_15_4_Message_t2E10MacIDIndexE
200040c8 V _ZN5RadioI23IEEE802_15_4_Message_t2E11MacHandlersE
200040dc V _ZN5RadioI23IEEE802_15_4_Message_t2E6MacIDsE
0805ecd4 T _ZN60Library_SamrakshEmoteDotNow_Samraksh_eMote_DotNow_SDInternal60InternalInitialize___STATIC__SamraksheMoteDotNowDeviceStatusER17CLR_RT_StackFrame
0805ed7c T _ZN60Library_SamrakshEmoteDotNow_Samraksh_eMote_DotNow_SDInternal78InternalRead___STATIC__SamraksheMoteDotNowDeviceStatus__SZARRAY_U1__U2__U2__U4ER17CLR_RT_StackFrame
0805ed00 T _ZN60Library_SamrakshEmoteDotNow_Samraksh_eMote_DotNow_SDInternal79InternalWrite___STATIC__SamraksheMoteDotNowDeviceStatus__SZARRAY_U1__U2__U2__U4ER17CLR_RT_StackFrame
08059d60 T _ZN60Library_spot_hardware_native_Microsoft_SPOT_Hardware_Battery24ReadVoltage___STATIC__I4ER17CLR_RT_StackFrame
08059e14 T _ZN60Library_spot_hardware_native_Microsoft_SPOT_Hardware_Battery26StateOfCharge___STATIC__I4ER17CLR_RT_StackFrame
08059da8 T _ZN60Library_spot_hardware_native_Microsoft_SPOT_Hardware_Battery27OnCharger___STATIC__BOOLEANER17CLR_RT_StackFrame
08059d84 T _ZN60Library_spot_hardware_native_Microsoft_SPOT_Hardware_Battery28ReadTemperature___STATIC__I4ER17CLR_RT_StackFrame
08059dd0 T _ZN60Library_spot_hardware_native_Microsoft_SPOT_Hardware_Battery32IsFullyCharged___STATIC__BOOLEANER17CLR_RT_StackFrame
08059e3c T _ZN60Library_spot_hardware_native_Microsoft_SPOT_Hardware_Battery34WaitForEvent___STATIC__BOOLEAN__I4ER17CLR_RT_StackFrame
0805e804 T _ZN61Library_SamrakshEmoteDotNow_Samraksh_eMote_DotNow_ADCInternal103ConfigureBatchModeDualChannel___STATIC__SamraksheMoteDotNowDeviceStatus__SZARRAY_U2__SZARRAY_U2__U4__U4ER17CLR_RT_StackFrame
0805e910 T _ZN61Library_SamrakshEmoteDotNow_Samraksh_eMote_DotNow_ADCInternal104ConfigureBatchModeWithThresholding___STATIC__SamraksheMoteDotNowDeviceStatus__SZARRAY_U2__I4__U4__U4__U4ER17CLR_RT_StackFrame
0805e784 T _ZN61Library_SamrakshEmoteDotNow_Samraksh_eMote_DotNow_ADCInternal108ConfigureContinuousModeDualChannel___STATIC__SamraksheMoteDotNowDeviceStatus__SZARRAY_U2__SZARRAY_U2__U4__U4ER17CLR_RT_StackFrame
0805e884 T _ZN61Library_SamrakshEmoteDotNow_Samraksh_eMote_DotNow_ADCInternal109ConfigureContinuousModeWithThresholding___STATIC__SamraksheMoteDotNowDeviceStatus__SZARRAY_U2__I4__U4__U4__U4ER17CLR_RT_StackFrame
0805e5f8 T _ZN61Library_SamrakshEmoteDotNow_Samraksh_eMote_DotNow_ADCInternal21Init___STATIC__I4__I4ER17CLR_RT_StackFrame
0805e65c T _ZN61Library_SamrakshEmoteDotNow_Samraksh_eMote_DotNow_ADCInternal21Read___STATIC__R8__I4ER17CLR_RT_StackFrame
0805e630 T _ZN61Library_SamrakshEmoteDotNow_Samraksh_eMote_DotNow_ADCInternal24Uninit___STATIC__BOOLEANER17CLR_RT_StackFrame
0805e9dc T _ZN61Library_SamrakshEmoteDotNow_Samraksh_eMote_DotNow_ADCInternal25StopSampling___STATIC__I4ER17CLR_RT_StackFrame
0805e99c T _ZN61Library_SamrakshEmoteDotNow_Samraksh_eMote_DotNow_ADCInternal45DualChannelRead___STATIC__BOOLEAN__SZARRAY_U2ER17CLR_RT_StackFrame
0805ea08 T _ZN61Library_SamrakshEmoteDotNow_Samraksh_eMote_DotNow_ADCInternal51SetPeriodicADCSamplingInterval___STATIC__I4__R8__R8ER17CLR_RT_StackFrame
0805e694 T _ZN61Library_SamrakshEmoteDotNow_Samraksh_eMote_DotNow_ADCInternal84ConfigureBatchMode___STATIC__SamraksheMoteDotNowDeviceStatus__SZARRAY_U2__I4__U4__U4ER17CLR_RT_StackFrame
0805e70c T _ZN61Library_SamrakshEmoteDotNow_Samraksh_eMote_DotNow_ADCInternal89ConfigureContinuousMode___STATIC__SamraksheMoteDotNowDeviceStatus__SZARRAY_U2__I4__U4__U4ER17CLR_RT_StackFrame
0805ab04 T _ZN61Library_spot_hardware_native_Microsoft_SPOT_Hardware_Watchdog143GetLastOcurrenceDetails___STATIC__BOOLEAN__BYREF_mscorlibSystemDateTime__BYREF_mscorlibSystemTimeSpan__BYREF_mscorlibSystemReflectionMethodInfoER17CLR_RT_StackFrame
0805a9ec T _ZN61Library_spot_hardware_native_Microsoft_SPOT_Hardware_Watchdog29get_Enabled___STATIC__BOOLEANER17CLR_RT_StackFrame
0805aa08 T _ZN61Library_spot_hardware_native_Microsoft_SPOT_Hardware_Watchdog35set_Enabled___STATIC__VOID__BOOLEANER17CLR_RT_StackFrame
0805aa68 T _ZN61Library_spot_hardware_native_Microsoft_SPOT_Hardware_Watchdog44get_Timeout___STATIC__mscorlibSystemTimeSpanER17CLR_RT_StackFrame
0805aa40 T _ZN61Library_spot_hardware_native_Microsoft_SPOT_Hardware_Watchdog50set_Timeout___STATIC__VOID__mscorlibSystemTimeSpanER17CLR_RT_StackFrame
0805aaf4 T _ZN61Library_spot_hardware_native_Microsoft_SPOT_Hardware_Watchdog54get_Log___STATIC__MicrosoftSPOTNativeMicrosoftSPOTILogER17CLR_RT_StackFrame
0805aac0 T _ZN61Library_spot_hardware_native_Microsoft_SPOT_Hardware_Watchdog60get_Behavior___STATIC__MicrosoftSPOTHardwareWatchdogBehaviorER17CLR_RT_StackFrame
0805aafc T _ZN61Library_spot_hardware_native_Microsoft_SPOT_Hardware_Watchdog60set_Log___STATIC__VOID__MicrosoftSPOTNativeMicrosoftSPOTILogER17CLR_RT_StackFrame
0805aad8 T _ZN61Library_spot_hardware_native_Microsoft_SPOT_Hardware_Watchdog66set_Behavior___STATIC__VOID__MicrosoftSPOTHardwareWatchdogBehaviorER17CLR_RT_StackFrame
08051488 T _ZN62Library_corlib_native_System_Runtime_Remoting_RemotingServices44IsTransparentProxy___STATIC__BOOLEAN__OBJECTER17CLR_RT_StackFrame
0805cfc4 T _ZN62Library_SamrakshEmote_Samraksh_eMote_Algorithm__RadarDetection20Initialize___BOOLEANER17CLR_RT_StackFrame
0805cffc T _ZN62Library_SamrakshEmote_Samraksh_eMote_Algorithm__RadarDetection22Uninitialize___BOOLEANER17CLR_RT_StackFrame
0805d4b0 T _ZN62Library_SamrakshEmote_Samraksh_eMote_Algorithm__RadarDetection23GetCountOverTarget___I4ER17CLR_RT_StackFrame
0805d2d8 T _ZN62Library_SamrakshEmote_Samraksh_eMote_Algorithm__RadarDetection24GetIQRejectionLevel___I4ER17CLR_RT_StackFrame
0805d35c T _ZN62Library_SamrakshEmote_Samraksh_eMote_Algorithm__RadarDetection32GetWindowOverThreshold___BOOLEANER17CLR_RT_StackFrame
0805d394 T _ZN62Library_SamrakshEmote_Samraksh_eMote_Algorithm__RadarDetection34CurrentDetectionFinished___BOOLEANER17CLR_RT_StackFrame
0805d2a0 T _ZN62Library_SamrakshEmote_Samraksh_eMote_Algorithm__RadarDetection38ResetBackgroundNoiseTracking___BOOLEANER17CLR_RT_StackFrame
0805d310 T _ZN62Library_SamrakshEmote_Samraksh_eMote_Algorithm__RadarDetection50GetLastUnwrap___I4__SamraksheMoteRADARNOISEREQUESTER17CLR_RT_StackFrame
0805d3cc T _ZN62Library_SamrakshEmote_Samraksh_eMote_Algorithm__RadarDetection57GetNetDisplacement___I4__SamraksheMoteSAMPLEWINDOWPORTIONER17CLR_RT_StackFrame
0805d0dc T _ZN62Library_SamrakshEmote_Samraksh_eMote_Algorithm__RadarDetection58DetectionCalculation___BOOLEAN__SZARRAY_U2__SZARRAY_U2__I4ER17CLR_RT_StackFrame
0805d464 T _ZN62Library_SamrakshEmote_Samraksh_eMote_Algorithm__RadarDetection59GetDisplacementRange___I4__SamraksheMoteSAMPLEWINDOWPORTIONER17CLR_RT_StackFrame
0805d254 T _ZN62Library_SamrakshEmote_Samraksh_eMote_Algorithm__RadarDetection60GetBackgroundNoiseLevel___I4__SamraksheMoteRADARNOISEREQUESTER17CLR_RT_StackFrame
0805d418 T _ZN62Library_SamrakshEmote_Samraksh_eMote_Algorithm__RadarDetection62GetAbsoluteDisplacement___I4__SamraksheMoteSAMPLEWINDOWPORTIONER17CLR_RT_StackFrame
0805d034 T _ZN62Library_SamrakshEmote_Samraksh_eMote_Algorithm__RadarDetection70DetectionCalculation___BOOLEAN__SZARRAY_U2__SZARRAY_U2__SZARRAY_U2__I4ER17CLR_RT_StackFrame
0805d164 T _ZN62Library_SamrakshEmote_Samraksh_eMote_Algorithm__RadarDetection92SetDetectionParameters___BOOLEAN__SamraksheMoteRADARNOISECONTROL__R8__R8__U2__U2__U2__U2__U2ER17CLR_RT_StackFrame
0805a638 T _ZN62Library_spot_hardware_native_Microsoft_SPOT_Hardware_I2CDevice17Initialize___VOIDER17CLR_RT_StackFrame
0805ad0c T _ZN62Library_spot_hardware_native_Microsoft_SPOT_Hardware_I2CDevice70Execute___I4__SZARRAY_MicrosoftSPOTHardwareI2CDeviceI2CTransaction__I4ER17CLR_RT_StackFrame
08059cd4 T _ZN62Library_spot_hardware_native_Microsoft_SPOT_Hardware_InputPort26get_GlitchFilter___BOOLEANER17CLR_RT_StackFrame
0805b1a4 T _ZN62Library_spot_hardware_native_Microsoft_SPOT_Hardware_InputPort32set_GlitchFilter___VOID__BOOLEANER17CLR_RT_StackFrame
08059cb4 T _ZN62Library_spot_hardware_native_Microsoft_SPOT_Hardware_InputPort52get_Resistor___MicrosoftSPOTHardwarePortResistorModeER17CLR_RT_StackFrame
0805b160 T _ZN62Library_spot_hardware_native_Microsoft_SPOT_Hardware_InputPort58set_Resistor___VOID__MicrosoftSPOTHardwarePortResistorModeER17CLR_RT_StackFrame
0805b9c4 T _ZN62Library_spot_hardware_serial_native_System_IO_Ports_SerialPort12Flush___VOIDER17CLR_RT_StackFrame
0805b660 T _ZN62Library_spot_hardware_serial_native_System_IO_Ports_SerialPort19InternalOpen___VOIDER17CLR_RT_StackFrame
0805b6c8 T _ZN62Library_spot_hardware_serial_native_System_IO_Ports_SerialPort20InternalClose___VOIDER17CLR_RT_StackFrame
0805b634 T _ZN62Library_spot_hardware_serial_native_System_IO_Ports_SerialPort22InternalDispose___VOIDER17CLR_RT_StackFrame
0805ba28 T _ZN62Library_spot_hardware_serial_native_System_IO_Ports_SerialPort27BytesInBuffer___I4__BOOLEANER17CLR_RT_StackFrame
0805ba70 T _ZN62Library_spot_hardware_serial_native_System_IO_Ports_SerialPort29DiscardBuffer___VOID__BOOLEANER17CLR_RT_StackFrame
0805b714 T _ZN62Library_spot_hardware_serial_native_System_IO_Ports_SerialPort29Read___I4__SZARRAY_U1__I4__I4ER17CLR_RT_StackFrame
0805b844 T _ZN62Library_spot_hardware_serial_native_System_IO_Ports_SerialPort32Write___VOID__SZARRAY_U1__I4__I4ER17CLR_RT_StackFrame
0805a6f8 T _ZN63Library_spot_hardware_native_Microsoft_SPOT_Hardware_OutputPort21Write___VOID__BOOLEANER17CLR_RT_StackFrame
08059fe0 T _ZN63Library_spot_hardware_native_Microsoft_SPOT_Hardware_OutputPort26get_InitialState___BOOLEANER17CLR_RT_StackFrame
0805a9a4 T _ZN63Library_spot_hardware_native_Microsoft_SPOT_Hardware_PowerState30Reboot___STATIC__VOID__BOOLEANER17CLR_RT_StackFrame
08059e8c T _ZN63Library_spot_hardware_native_Microsoft_SPOT_Hardware_PowerState40WaitForIdleCPU___STATIC__BOOLEAN__I4__I4ER17CLR_RT_StackFrame
0805a9d8 T _ZN63Library_spot_hardware_native_Microsoft_SPOT_Hardware_PowerState43get_Uptime___STATIC__mscorlibSystemTimeSpanER17CLR_RT_StackFrame
0805a9bc T _ZN63Library_spot_hardware_native_Microsoft_SPOT_Hardware_PowerState56get_MaximumTimeToActive___STATIC__mscorlibSystemTimeSpanER17CLR_RT_StackFrame
0805a184 T _ZN63Library_spot_hardware_native_Microsoft_SPOT_Hardware_PowerState61get_WakeupEvents___STATIC__MicrosoftSPOTHardwareHardwareEventER17CLR_RT_StackFrame
08059c5c T _ZN63Library_spot_hardware_native_Microsoft_SPOT_Hardware_PowerState62set_MaximumTimeToActive___STATIC__VOID__mscorlibSystemTimeSpanER17CLR_RT_StackFrame
08059c7c T _ZN63Library_spot_hardware_native_Microsoft_SPOT_Hardware_PowerState67set_WakeupEvents___STATIC__VOID__MicrosoftSPOTHardwareHardwareEventER17CLR_RT_StackFrame
0805aa30 T _ZN63Library_spot_hardware_native_Microsoft_SPOT_Hardware_PowerState72InternalChangePowerLevel___STATIC__VOID__MicrosoftSPOTHardwarePowerLevelER17CLR_RT_StackFrame
0805ac58 T _ZN63Library_spot_hardware_native_Microsoft_SPOT_Hardware_PowerState97InternalSleep___STATIC__VOID__MicrosoftSPOTHardwareSleepLevel__MicrosoftSPOTHardwareHardwareEventER17CLR_RT_StackFrame
0805cf70 T _ZN64Library_SamrakshEmote_Samraksh_eMote_Algorithm__DecisionFunction23Decide___R4__SZARRAY_I4ER17CLR_RT_StackFrame
0805cf04 T _ZN64Library_SamrakshEmote_Samraksh_eMote_Algorithm__DecisionFunction53NormalizeFeatureVector___VOID__SZARRAY_R4__SZARRAY_I4ER17CLR_RT_StackFrame
0805ce1c T _ZN64Library_SamrakshEmote_Samraksh_eMote_Algorithm__DecisionFunction69Initialize___VOID__U2__U2__R4__R4__SZARRAY_R4__SZARRAY_R4__SZARRAY_R4ER17CLR_RT_StackFrame
0805da2c T _ZN64Library_SamrakshEmote_Samraksh_eMote_NonVolatileMemory_DataStore14DeleteAll___I4ER17CLR_RT_StackFrame
0805d940 T _ZN64Library_SamrakshEmote_Samraksh_eMote_NonVolatileMemory_DataStore17GetFreeBytes___I4ER17CLR_RT_StackFrame
0805d908 T _ZN64Library_SamrakshEmote_Samraksh_eMote_NonVolatileMemory_DataStore17GetUsedBytes___I4ER17CLR_RT_StackFrame
0805d8d0 T _ZN64Library_SamrakshEmote_Samraksh_eMote_NonVolatileMemory_DataStore18GetTotalSpace___I4ER17CLR_RT_StackFrame
0805da64 T _ZN64Library_SamrakshEmote_Samraksh_eMote_NonVolatileMemory_DataStore19EraseAllBlocks___I4ER17CLR_RT_StackFrame
0805da9c T _ZN64Library_SamrakshEmote_Samraksh_eMote_NonVolatileMemory_DataStore21DataStoreGC___BOOLEANER17CLR_RT_StackFrame
0805d9f4 T _ZN64Library_SamrakshEmote_Samraksh_eMote_NonVolatileMemory_DataStore22GetCountOfDataIds___I4ER17CLR_RT_StackFrame
0805d898 T _ZN64Library_SamrakshEmote_Samraksh_eMote_NonVolatileMemory_DataStore25GetMaxAllocationSize___I4ER17CLR_RT_StackFrame
0805db0c T _ZN64Library_SamrakshEmote_Samraksh_eMote_NonVolatileMemory_DataStore27GetLastDatastoreStatus___I4ER17CLR_RT_StackFrame
0805dad4 T _ZN64Library_SamrakshEmote_Samraksh_eMote_NonVolatileMemory_DataStore28GetReadWriteStatus___BOOLEANER17CLR_RT_StackFrame
0805d848 T _ZN64Library_SamrakshEmote_Samraksh_eMote_NonVolatileMemory_DataStore29CreateDataStore___I4__BOOLEANER17CLR_RT_StackFrame
0805d978 T _ZN64Library_SamrakshEmote_Samraksh_eMote_NonVolatileMemory_DataStore42GetReadAllDataIds___I4__SZARRAY_I4__I4__I4ER17CLR_RT_StackFrame
0805dd74 T _ZN64Library_SamrakshEmote_Samraksh_eMote_NonVolatileMemory_DataStore44ReadRaw___I4__U4__SZARRAY_U1__U4__U4__U1__I4ER17CLR_RT_StackFrame
0805de30 T _ZN64Library_SamrakshEmote_Samraksh_eMote_NonVolatileMemory_DataStore44ReadRaw___I4__U4__SZARRAY_U1__U4__U4__U2__I4ER17CLR_RT_StackFrame
0805deec T _ZN64Library_SamrakshEmote_Samraksh_eMote_NonVolatileMemory_DataStore44ReadRaw___I4__U4__SZARRAY_U1__U4__U4__U4__I4ER17CLR_RT_StackFrame
0805db44 T _ZN64Library_SamrakshEmote_Samraksh_eMote_NonVolatileMemory_DataStore45WriteRaw___I4__U4__SZARRAY_U1__U4__U4__U1__I4ER17CLR_RT_StackFrame
0805dc00 T _ZN64Library_SamrakshEmote_Samraksh_eMote_NonVolatileMemory_DataStore45WriteRaw___I4__U4__SZARRAY_U1__U4__U4__U2__I4ER17CLR_RT_StackFrame
0805dcbc T _ZN64Library_SamrakshEmote_Samraksh_eMote_NonVolatileMemory_DataStore45WriteRaw___I4__U4__SZARRAY_U1__U4__U4__U4__I4ER17CLR_RT_StackFrame
08059c98 T _ZN64Library_spot_hardware_native_Microsoft_SPOT_Hardware_AnalogInput12ReadRaw___I4ER17CLR_RT_StackFrame
08059d10 T _ZN64Library_spot_hardware_native_Microsoft_SPOT_Hardware_AnalogInput66Uninitialize___STATIC__VOID__MicrosoftSPOTHardwareCpuAnalogChannelER17CLR_RT_StackFrame
08059cf4 T _ZN64Library_spot_hardware_native_Microsoft_SPOT_Hardware_AnalogInput68Initialize___STATIC__VOID__MicrosoftSPOTHardwareCpuAnalogChannel__I4ER17CLR_RT_StackFrame
0805b524 T _ZN64Library_spot_hardware_native_Microsoft_SPOT_Hardware_LargeBuffer18CreateBufferHelperER16CLR_RT_HeapBlockj
0805abc8 T _ZN64Library_spot_hardware_native_Microsoft_SPOT_Hardware_LargeBuffer28InternalDestroyBuffer___VOIDER17CLR_RT_StackFrame
0805b5a0 T _ZN64Library_spot_hardware_native_Microsoft_SPOT_Hardware_LargeBuffer31InternalCreateBuffer___VOID__I4ER17CLR_RT_StackFrame
08058924 T _ZN64Library_spot_native_Microsoft_SPOT_Hardware_SystemInfo__SystemID20get_OEM___STATIC__U1ER17CLR_RT_StackFrame
08058954 T _ZN64Library_spot_native_Microsoft_SPOT_Hardware_SystemInfo__SystemID20get_SKU___STATIC__U2ER17CLR_RT_StackFrame
0805893c T _ZN64Library_spot_native_Microsoft_SPOT_Hardware_SystemInfo__SystemID22get_Model___STATIC__U1ER17CLR_RT_StackFrame
0805cdbc T _ZN65Library_SamrakshEmote_Samraksh_eMote_Algorithm__AcousticDetection40SetDetectionParameters___BOOLEAN__I4__I4ER17CLR_RT_StackFrame
0805cd1c T _ZN65Library_SamrakshEmote_Samraksh_eMote_Algorithm__AcousticDetection67DetectionCalculation___BOOLEAN__SZARRAY_U2__I4__SZARRAY_R8__BOOLEANER17CLR_RT_StackFrame
08059d20 T _ZN65Library_spot_hardware_native_Microsoft_SPOT_Hardware_AnalogOutput19WriteRaw___VOID__I4ER17CLR_RT_StackFrame
08059d50 T _ZN65Library_spot_hardware_native_Microsoft_SPOT_Hardware_AnalogOutput72Uninitialize___STATIC__VOID__MicrosoftSPOTHardwareCpuAnalogOutputChannelER17CLR_RT_StackFrame
08059d34 T _ZN65Library_spot_hardware_native_Microsoft_SPOT_Hardware_AnalogOutput74Initialize___STATIC__VOID__MicrosoftSPOTHardwareCpuAnalogOutputChannel__I4ER17CLR_RT_StackFrame
08059df8 T _ZN65Library_spot_hardware_native_Microsoft_SPOT_Hardware_TristatePort20get_Active___BOOLEANER17CLR_RT_StackFrame
08059cec T _ZN65Library_spot_hardware_native_Microsoft_SPOT_Hardware_TristatePort26get_GlitchFilter___BOOLEANER17CLR_RT_StackFrame
0805b31c T _ZN65Library_spot_hardware_native_Microsoft_SPOT_Hardware_TristatePort26set_Active___VOID__BOOLEANER17CLR_RT_StackFrame
08059ccc T _ZN65Library_spot_hardware_native_Microsoft_SPOT_Hardware_TristatePort52get_Resistor___MicrosoftSPOTHardwarePortResistorModeER17CLR_RT_StackFrame
0805b19c T _ZN65Library_spot_hardware_native_Microsoft_SPOT_Hardware_TristatePort58set_Resistor___VOID__MicrosoftSPOTHardwarePortResistorModeER17CLR_RT_StackFrame
08059774 T _ZN65Library_spot_update_native_Microsoft_SPOT_MFUpdate_MFNativeUpdate21_cctor___STATIC__VOIDER17CLR_RT_StackFrame
08059840 T _ZN65Library_spot_update_native_Microsoft_SPOT_MFUpdate_MFNativeUpdate26Open___STATIC__BOOLEAN__I4ER17CLR_RT_StackFrame
08059858 T _ZN65Library_spot_update_native_Microsoft_SPOT_MFUpdate_MFNativeUpdate28Create___STATIC__BOOLEAN__I4ER17CLR_RT_StackFrame
080599cc T _ZN65Library_spot_update_native_Microsoft_SPOT_MFUpdate_MFNativeUpdate31DeleteUpdate___STATIC__VOID__I4ER17CLR_RT_StackFrame
0805999c T _ZN65Library_spot_update_native_Microsoft_SPOT_MFUpdate_MFNativeUpdate41Install___STATIC__BOOLEAN__I4__SZARRAY_U1ER17CLR_RT_StackFrame
0805996c T _ZN65Library_spot_update_native_Microsoft_SPOT_MFUpdate_MFNativeUpdate42Validate___STATIC__BOOLEAN__I4__SZARRAY_U1ER17CLR_RT_StackFrame
0805980c T _ZN65Library_spot_update_native_Microsoft_SPOT_MFUpdate_MFNativeUpdate46Authenticate___STATIC__BOOLEAN__I4__SZARRAY_U1ER17CLR_RT_StackFrame
08059ab0 T _ZN65Library_spot_update_native_Microsoft_SPOT_MFUpdate_MFNativeUpdate47SerializeParameter___STATIC__SZARRAY_U1__OBJECTER17CLR_RT_StackFrame
08059870 T _ZN65Library_spot_update_native_Microsoft_SPOT_MFUpdate_MFNativeUpdate48GetMissingPackets___STATIC__VOID__I4__SZARRAY_U4ER17CLR_RT_StackFrame
08059c10 T _ZN65Library_spot_update_native_Microsoft_SPOT_MFUpdate_MFNativeUpdate58DeserializeParameter___STATIC__BOOLEAN__SZARRAY_U1__OBJECTER17CLR_RT_StackFrame
08059780 T _ZN65Library_spot_update_native_Microsoft_SPOT_MFUpdate_MFNativeUpdate58Initialize___STATIC__I4__MicrosoftSPOTMFUpdateMFUpdateBaseER17CLR_RT_StackFrame
08059924 T _ZN65Library_spot_update_native_Microsoft_SPOT_MFUpdate_MFNativeUpdate59AddPacket___STATIC__BOOLEAN__I4__I4__SZARRAY_U1__SZARRAY_U1ER17CLR_RT_StackFrame
080598ec T _ZN65Library_spot_update_native_Microsoft_SPOT_MFUpdate_MFNativeUpdate59SetUpdateProperty___STATIC__BOOLEAN__I4__STRING__SZARRAY_U1ER17CLR_RT_StackFrame
080598a0 T _ZN65Library_spot_update_native_Microsoft_SPOT_MFUpdate_MFNativeUpdate65GetUpdateProperty___STATIC__BOOLEAN__I4__STRING__BYREF_SZARRAY_U1ER17CLR_RT_StackFrame
080597b8 T _ZN65Library_spot_update_native_Microsoft_SPOT_MFUpdate_MFNativeUpdate67AuthCommand___STATIC__BOOLEAN__I4__I4__SZARRAY_U1__BYREF_SZARRAY_U1ER17CLR_RT_StackFrame
0805b244 T _ZN66Library_spot_hardware_native_Microsoft_SPOT_Hardware_InterruptPort21ClearInterrupt___VOIDER17CLR_RT_StackFrame
0805b1dc T _ZN66Library_spot_hardware_native_Microsoft_SPOT_Hardware_InterruptPort22EnableInterrupt___VOIDER17CLR_RT_StackFrame
0805b210 T _ZN66Library_spot_hardware_native_Microsoft_SPOT_Hardware_InterruptPort23DisableInterrupt___VOIDER17CLR_RT_StackFrame
08059fc4 T _ZN66Library_spot_hardware_native_Microsoft_SPOT_Hardware_InterruptPort54get_Interrupt___MicrosoftSPOTHardwarePortInterruptModeER17CLR_RT_StackFrame
0805b284 T _ZN66Library_spot_hardware_native_Microsoft_SPOT_Hardware_InterruptPort60set_Interrupt___VOID__MicrosoftSPOTHardwarePortInterruptModeER17CLR_RT_StackFrame
08050cf0 T _ZN68Library_corlib_native_System_Runtime_CompilerServices_RuntimeHelpers35get_OffsetToStringData___STATIC__I4ER17CLR_RT_StackFrame
08052454 T _ZN68Library_corlib_native_System_Runtime_CompilerServices_RuntimeHelpers39GetObjectValue___STATIC__OBJECT__OBJECTER17CLR_RT_StackFrame
08050ce8 T _ZN68Library_corlib_native_System_Runtime_CompilerServices_RuntimeHelpers59RunClassConstructor___STATIC__VOID__SystemRuntimeTypeHandleER17CLR_RT_StackFrame
08052750 T _ZN68Library_corlib_native_System_Runtime_CompilerServices_RuntimeHelpers69InitializeArray___STATIC__VOID__SystemArray__SystemRuntimeFieldHandleER17CLR_RT_StackFrame
0805d78c T _ZN68Library_SamrakshEmote_Samraksh_eMote_NonVolatileMemory_DataReference14GetDataID___U4ER17CLR_RT_StackFrame
0805d664 T _ZN68Library_SamrakshEmote_Samraksh_eMote_NonVolatileMemory_DataReference23CreateData___I4__U4__U1ER17CLR_RT_StackFrame
0805d6c8 T _ZN68Library_SamrakshEmote_Samraksh_eMote_NonVolatileMemory_DataReference23CreateData___I4__U4__U2ER17CLR_RT_StackFrame
0805d72c T _ZN68Library_SamrakshEmote_Samraksh_eMote_NonVolatileMemory_DataReference23CreateData___I4__U4__U4ER17CLR_RT_StackFrame
0805d5cc T _ZN68Library_SamrakshEmote_Samraksh_eMote_NonVolatileMemory_DataReference23LookupDataSize___I4__U4ER17CLR_RT_StackFrame
0805d580 T _ZN68Library_SamrakshEmote_Samraksh_eMote_NonVolatileMemory_DataReference23LookupDataType___I4__U4ER17CLR_RT_StackFrame
0805d618 T _ZN68Library_SamrakshEmote_Samraksh_eMote_NonVolatileMemory_DataReference24DeleteData___BOOLEAN__U4ER17CLR_RT_StackFrame
0805d534 T _ZN68Library_SamrakshEmote_Samraksh_eMote_NonVolatileMemory_DataReference24GetDataLocation___I4__U4ER17CLR_RT_StackFrame
0805d4e8 T _ZN68Library_SamrakshEmote_Samraksh_eMote_NonVolatileMemory_DataReference25GetDataReference___I4__U4ER17CLR_RT_StackFrame
0805d7c4 T _ZN68Library_SamrakshEmote_Samraksh_eMote_NonVolatileMemory_DataReference27GetLastDatastoreStatus___I4ER17CLR_RT_StackFrame
0805d7fc T _ZN68Library_SamrakshEmote_Samraksh_eMote_NonVolatileMemory_DataReference40DisposeNativeMemoryPointer___BOOLEAN__U4ER17CLR_RT_StackFrame
0805a3f4 T _ZN69Library_spot_hardware_native_Microsoft_SPOT_Hardware_HardwareProvider107NativeGetSupportedResistorModes___MicrosoftSPOTHardwareCpuPinValidResistorMode__MicrosoftSPOTHardwareCpuPinER17CLR_RT_StackFrame
0805a5b0 T _ZN69Library_spot_hardware_native_Microsoft_SPOT_Hardware_HardwareProvider109NativeGetAnalogOutputPinForChannel___MicrosoftSPOTHardwareCpuPin__MicrosoftSPOTHardwareCpuAnalogOutputChannelER17CLR_RT_StackFrame
0805a40c T _ZN69Library_spot_hardware_native_Microsoft_SPOT_Hardware_HardwareProvider109NativeGetSupportedInterruptModes___MicrosoftSPOTHardwareCpuPinValidInterruptMode__MicrosoftSPOTHardwareCpuPinER17CLR_RT_StackFrame
0805a5d8 T _ZN69Library_spot_hardware_native_Microsoft_SPOT_Hardware_HardwareProvider113NativeGetAvailableAnalogOutputPrecisionInBitsForChannel___SZARRAY_I4__MicrosoftSPOTHardwareCpuAnalogOutputChannelER17CLR_RT_StackFrame
0805a29c T _ZN69Library_spot_hardware_native_Microsoft_SPOT_Hardware_HardwareProvider163NativeGetSpiPins___VOID__MicrosoftSPOTHardwareSPISPImodule__BYREF_MicrosoftSPOTHardwareCpuPin__BYREF_MicrosoftSPOTHardwareCpuPin__BYREF_MicrosoftSPOTHardwareCpuPinER17CLR_RT_StackFrame
0805a0c4 T _ZN69Library_spot_hardware_native_Microsoft_SPOT_Hardware_HardwareProvider170NativeGetSerialPins___VOID__I4__BYREF_MicrosoftSPOTHardwareCpuPin__BYREF_MicrosoftSPOTHardwareCpuPin__BYREF_MicrosoftSPOTHardwareCpuPin__BYREF_MicrosoftSPOTHardwareCpuPinER17CLR_RT_StackFrame
0805a380 T _ZN69Library_spot_hardware_native_Microsoft_SPOT_Hardware_HardwareProvider23NativeGetPinsCount___I4ER17CLR_RT_StackFrame
0805a288 T _ZN69Library_spot_hardware_native_Microsoft_SPOT_Hardware_HardwareProvider27NativeGetSpiPortsCount___I4ER17CLR_RT_StackFrame
0805a4d0 T _ZN69Library_spot_hardware_native_Microsoft_SPOT_Hardware_HardwareProvider30NativeGetPWMChannelsCount___I4ER17CLR_RT_StackFrame
0805a170 T _ZN69Library_spot_hardware_native_Microsoft_SPOT_Hardware_HardwareProvider30NativeGetSerialPortsCount___I4ER17CLR_RT_StackFrame
0805a500 T _ZN69Library_spot_hardware_native_Microsoft_SPOT_Hardware_HardwareProvider33NativeGetAnalogChannelsCount___I4ER17CLR_RT_StackFrame
0805a59c T _ZN69Library_spot_hardware_native_Microsoft_SPOT_Hardware_HardwareProvider39NativeGetAnalogOutputChannelsCount___I4ER17CLR_RT_StackFrame
0805a19c T _ZN69Library_spot_hardware_native_Microsoft_SPOT_Hardware_HardwareProvider47NativeSupportsNonStandardBaudRate___BOOLEAN__I4ER17CLR_RT_StackFrame
0805a22c T _ZN69Library_spot_hardware_native_Microsoft_SPOT_Hardware_HardwareProvider49NativeIsSupportedBaudRate___BOOLEAN__I4__BYREF_U4ER17CLR_RT_StackFrame
0805a1c4 T _ZN69Library_spot_hardware_native_Microsoft_SPOT_Hardware_HardwareProvider56NativeGetBaudRateBoundary___VOID__I4__BYREF_U4__BYREF_U4ER17CLR_RT_StackFrame
0805a394 T _ZN69Library_spot_hardware_native_Microsoft_SPOT_Hardware_HardwareProvider65NativeGetPinsMap___VOID__SZARRAY_MicrosoftSPOTHardwareCpuPinUsageER17CLR_RT_StackFrame
0805a43c T _ZN69Library_spot_hardware_native_Microsoft_SPOT_Hardware_HardwareProvider66NativeGetLCDMetrics___VOID__BYREF_I4__BYREF_I4__BYREF_I4__BYREF_I4ER17CLR_RT_StackFrame
0805a424 T _ZN69Library_spot_hardware_native_Microsoft_SPOT_Hardware_HardwareProvider78NativeGetButtonPins___MicrosoftSPOTHardwareCpuPin__MicrosoftSPOTHardwareButtonER17CLR_RT_StackFrame
0805a3dc T _ZN69Library_spot_hardware_native_Microsoft_SPOT_Hardware_HardwareProvider81NativeGetPinUsage___MicrosoftSPOTHardwareCpuPinUsage__MicrosoftSPOTHardwareCpuPinER17CLR_RT_StackFrame
0805a4e4 T _ZN69Library_spot_hardware_native_Microsoft_SPOT_Hardware_HardwareProvider91NativeGetPWMPinForChannel___MicrosoftSPOTHardwareCpuPin__MicrosoftSPOTHardwareCpuPWMChannelER17CLR_RT_StackFrame
0805a328 T _ZN69Library_spot_hardware_native_Microsoft_SPOT_Hardware_HardwareProvider93NativeGetI2CPins___VOID__BYREF_MicrosoftSPOTHardwareCpuPin__BYREF_MicrosoftSPOTHardwareCpuPinER17CLR_RT_StackFrame
0805a53c T _ZN69Library_spot_hardware_native_Microsoft_SPOT_Hardware_HardwareProvider95NativeGetAvailablePrecisionInBitsForChannel___SZARRAY_I4__MicrosoftSPOTHardwareCpuAnalogChannelER17CLR_RT_StackFrame
0805a514 T _ZN69Library_spot_hardware_native_Microsoft_SPOT_Hardware_HardwareProvider97NativeGetAnalogPinForChannel___MicrosoftSPOTHardwareCpuPin__MicrosoftSPOTHardwareCpuAnalogChannelER17CLR_RT_StackFrame
080574b8 T _ZN6System4Math13IEEERemainderEdd
080574a8 T _ZN6System4Math3CosEd
080574c0 T _ZN6System4Math3ExpEd
080574d8 T _ZN6System4Math3LogEd
080574e8 T _ZN6System4Math3PowEdd
080574f0 T _ZN6System4Math3SinEd
08057508 T _ZN6System4Math3TanEd
08057480 T _ZN6System4Math4AcosEd
08057488 T _ZN6System4Math4AsinEd
08057490 T _ZN6System4Math4AtanEd
080574b0 T _ZN6System4Math4CoshEd
080574d0 T _ZN6System4Math4FmodEdd
080574f8 T _ZN6System4Math4SinhEd
08057500 T _ZN6System4Math4SqrtEd
08057510 T _ZN6System4Math4TanhEd
08057498 T _ZN6System4Math5Atan2Edd
080574c8 T _ZN6System4Math5FloorEd
080574e0 T _ZN6System4Math5Log10Ed
080574a0 T _ZN6System4Math7CeilingEd
08057518 T _ZN6System4Math8TruncateEdRd
080573ec T _ZN6System6Double10IsInfinityEd
0805741c T _ZN6System6Double18IsNegativeInfinityEd
0805744c T _ZN6System6Double18IsPositiveInfinityEd
0805740c T _ZN6System6Double5IsNaNEd
08057334 T _ZN6System6Double9CompareToEdd
0805ca30 T _ZN71Library_Samraksh_eMote_Net_Samraksh_eMote_Net_Radio_Radio_802_15_4_Base24GetRadioAddress___U2__U1ER17CLR_RT_StackFrame
0805ca80 T _ZN71Library_Samraksh_eMote_Net_Samraksh_eMote_Net_Radio_Radio_802_15_4_Base33SetRadioAddress___BOOLEAN__U1__U2ER17CLR_RT_StackFrame
0805c670 T _ZN71Library_Samraksh_eMote_Net_Samraksh_eMote_Net_Radio_Radio_802_15_4_Base35ClearChannelAssesment___BOOLEAN__U1ER17CLR_RT_StackFrame
0805c6c0 T _ZN71Library_Samraksh_eMote_Net_Samraksh_eMote_Net_Radio_Radio_802_15_4_Base39ClearChannelAssesment___BOOLEAN__U1__U2ER17CLR_RT_StackFrame
0805c5b8 T _ZN71Library_Samraksh_eMote_Net_Samraksh_eMote_Net_Radio_Radio_802_15_4_Base43TurnOnRx___SamraksheMoteNetDeviceStatus__U1ER17CLR_RT_StackFrame
0805c608 T _ZN71Library_Samraksh_eMote_Net_Samraksh_eMote_Net_Radio_Radio_802_15_4_Base44Sleep___SamraksheMoteNetDeviceStatus__U1__U1ER17CLR_RT_StackFrame
0805cb38 T _ZN71Library_Samraksh_eMote_Net_Samraksh_eMote_Net_Radio_Radio_802_15_4_Base44TurnOffRx___SamraksheMoteNetDeviceStatus__U1ER17CLR_RT_StackFrame
0805c918 T _ZN71Library_Samraksh_eMote_Net_Samraksh_eMote_Net_Radio_Radio_802_15_4_Base47SetRadioName___SamraksheMoteNetDeviceStatus__U1ER17CLR_RT_StackFrame
0805cae8 T _ZN71Library_Samraksh_eMote_Net_Samraksh_eMote_Net_Radio_Radio_802_15_4_Base47UnInitialize___SamraksheMoteNetDeviceStatus__U1ER17CLR_RT_StackFrame
0805c794 T _ZN71Library_Samraksh_eMote_Net_Samraksh_eMote_Net_Radio_Radio_802_15_4_Base48SendStrobe___SamraksheMoteNetNetOpStatus__U1__U2ER17CLR_RT_StackFrame
0805c9cc T _ZN71Library_Samraksh_eMote_Net_Samraksh_eMote_Net_Radio_Radio_802_15_4_Base49SetChannel___SamraksheMoteNetDeviceStatus__U1__I4ER17CLR_RT_StackFrame
0805c968 T _ZN71Library_Samraksh_eMote_Net_Samraksh_eMote_Net_Radio_Radio_802_15_4_Base49SetTxPower___SamraksheMoteNetDeviceStatus__U1__I4ER17CLR_RT_StackFrame
0805c728 T _ZN71Library_Samraksh_eMote_Net_Samraksh_eMote_Net_Radio_Radio_802_15_4_Base53PreLoad___SamraksheMoteNetNetOpStatus__SZARRAY_U1__U2ER17CLR_RT_StackFrame
0805c7fc T _ZN71Library_Samraksh_eMote_Net_Samraksh_eMote_Net_Radio_Radio_802_15_4_Base54Send___SamraksheMoteNetNetOpStatus__U1__SZARRAY_U1__U2ER17CLR_RT_StackFrame
0805c880 T _ZN71Library_Samraksh_eMote_Net_Samraksh_eMote_Net_Radio_Radio_802_15_4_Base69SendTimeStamped___SamraksheMoteNetNetOpStatus__U1__SZARRAY_U1__U2__U4ER17CLR_RT_StackFrame
0805afcc T _ZN71Library_spot_hardware_native_Microsoft_SPOT_Hardware_SPI__Configuration16GetInitialConfigER16CLR_RT_HeapBlockR17SPI_CONFIGURATION
08059f4c T _ZN74Library_spot_hardware_native_Microsoft_SPOT_Hardware_Battery__ChargerModel12_ctor___VOIDER17CLR_RT_StackFrame
0805abec T _ZN74Library_spot_hardware_native_Microsoft_SPOT_Hardware_LargeBufferMarshaller54MarshalBuffer___VOID__MicrosoftSPOTHardwareLargeBufferER17CLR_RT_StackFrame
0805b5b8 T _ZN74Library_spot_hardware_native_Microsoft_SPOT_Hardware_LargeBufferMarshaller62UnMarshalBuffer___VOID__BYREF_MicrosoftSPOTHardwareLargeBufferER17CLR_RT_StackFrame
0805b138 T _ZN74Library_spot_hardware_native_Microsoft_SPOT_Hardware_NativeEventDispatcher18GetEventDispatcherER17CLR_RT_StackFrame
0805b148 T _ZN74Library_spot_hardware_native_Microsoft_SPOT_Hardware_NativeEventDispatcher18GetEventDispatcherER17CLR_RT_StackFrameRP38CLR_RT_HeapBlock_NativeEventDispatcher
0805b128 T _ZN74Library_spot_hardware_native_Microsoft_SPOT_Hardware_NativeEventDispatcher21GetEventDispReferenceER17CLR_RT_StackFrame
0805b384 T _ZN74Library_spot_hardware_native_Microsoft_SPOT_Hardware_NativeEventDispatcher22EnableInterrupt___VOIDER17CLR_RT_StackFrame
0805b3d0 T _ZN74Library_spot_hardware_native_Microsoft_SPOT_Hardware_NativeEventDispatcher23DisableInterrupt___VOIDER17CLR_RT_StackFrame
0805b418 T _ZN74Library_spot_hardware_native_Microsoft_SPOT_Hardware_NativeEventDispatcher23Dispose___VOID__BOOLEANER17CLR_RT_StackFrame
0805b458 T _ZN74Library_spot_hardware_native_Microsoft_SPOT_Hardware_NativeEventDispatcher24_ctor___VOID__STRING__U8ER17CLR_RT_StackFrame
0805acdc T _ZN77Library_spot_hardware_native_Microsoft_SPOT_Hardware_I2CDevice__Configuration16GetInitialConfigER16CLR_RT_HeapBlockR22I2C_USER_CONFIGURATION
08026c5c T _ZN7csmaMAC10InitializeEP15MACEventHandlerhhhP9MACConfig
08026f44 T _ZN7csmaMAC11SendToRadioEv
08026e10 T _ZN7csmaMAC12UnInitializeEv
0802748c T _ZN7csmaMAC14ReceiveHandlerEP23IEEE802_15_4_Message_t2i
08027764 T _ZN7csmaMAC14SendAckHandlerEPvi11NetOpStatush
08027144 T _ZN7csmaMAC15SendTimeStampedEthPvij
08026e7c T _ZN7csmaMAC19UpdateNeighborTableEv
0802774c T _ZN7csmaMAC21RadioInterruptHandlerE14RadioInterruptPv
080272c0 T _ZN7csmaMAC4SendEthPvi
08026ec0 T _ZN7csmaMAC6ResendEPvi
0802742c T _ZN7csmaMAC9SendHelloEv
08026c44 T _ZN7csmaMAC9SetConfigEP9MACConfig
080592b8 T _ZN81Library_spot_native_System_Security_Cryptography_X509Certificates_X509Certificate139ParseCertificate___STATIC__VOID__SZARRAY_U1__STRING__BYREF_STRING__BYREF_STRING__BYREF_mscorlibSystemDateTime__BYREF_mscorlibSystemDateTimeER17CLR_RT_StackFrame
0805cc50 T _ZN82Library_Samraksh_eMote_ProgramManager_Samraksh_eMote_ProgramManager_ProgramManager22UpdaterStart___BOOLEANER17CLR_RT_StackFrame
0805cc88 T _ZN82Library_Samraksh_eMote_ProgramManager_Samraksh_eMote_ProgramManager_ProgramManager26UpdaterStart___BOOLEAN__U4ER17CLR_RT_StackFrame
0805ccd4 T _ZN82Library_Samraksh_eMote_ProgramManager_Samraksh_eMote_ProgramManager_ProgramManager32UpdaterSetDestination___VOID__U2ER17CLR_RT_StackFrame
08028778 T _ZN8MFUpdate9GetUpdateEj
08067ab0 T _ZN8myVector5eraseEi
08067a54 T _ZN8myVector6insertEiRK4PACK
08067b20 T _ZN8myVectorixEi
0802afd8 T _ZN8OMACType10InitializeEP15MACEventHandlerhhhP9MACConfig
0802b180 T _ZN8OMACType12UnInitializeEv
0802bfa0 T _ZN8OMACType13EnqueueToSendEthPvi
0802b1b8 T _ZN8OMACType14ReceiveHandlerEP23IEEE802_15_4_Message_t2i
0802c670 T _ZN8OMACType15SendTimeStampedEthPvij
0802b728 T _ZN8OMACType18GetPacketWithIndexEPPhht
0802d380 T _ZN8OMACType19UpdateNeighborTableEv
0802b854 T _ZN8OMACType20PrepareMessageBufferEthPvi
200034f0 B _ZN8OMACType21payloadTypeArrayIndexE
0802b770 T _ZN8OMACType22GetPacketSizeWithIndexEPht
0802b970 T _ZN8OMACType24EnqueueToSendTimeStampedEthPvij
0802af60 T _ZN8OMACType24PushPacketsToUpperLayersEPv
0802af98 T _ZN8OMACType25SendRXPacketToUpperLayersEP23IEEE802_15_4_Message_t2h
200034dc B _ZN8OMACType26OMAC_callback_continuationE
0802b798 T _ZN8OMACType29DeletePacketWithIndexInternalEt
0802ad98 T _ZN8OMACType33SetOMACParametersBasedOnRadioNameEh
0802cca8 T _ZN8OMACType4SendEthPvi
0802ad80 T _ZN8OMACType9SetConfigEP9MACConfig
0805e124 T _ZN8Samraksh5eMote13RadarInternal18GetCountOverTargetEP16CLR_RT_HeapBlockRi
0805e100 T _ZN8Samraksh5eMote13RadarInternal18GetNetDisplacementEP16CLR_RT_HeapBlockiRi
0805e118 T _ZN8Samraksh5eMote13RadarInternal20GetDisplacementRangeEP16CLR_RT_HeapBlockiRi
0805e0f0 T _ZN8Samraksh5eMote13RadarInternal22GetWindowOverThresholdEP16CLR_RT_HeapBlockRi
0805e10c T _ZN8Samraksh5eMote13RadarInternal23GetAbsoluteDisplacementEP16CLR_RT_HeapBlockiRi
0805e12c T _ZN8Samraksh5eMote13RadarInternal23SetProcessingInProgressEP16CLR_RT_HeapBlockaRi
0805e0f8 T _ZN8Samraksh5eMote13RadarInternal24CurrentDetectionFinishedEP16CLR_RT_HeapBlockRi
0805e0cc T _ZN8Samraksh5eMote13RadarInternal29ConfigureFPGADetectionPrivateEP16CLR_RT_HeapBlock17CLR_RT_TypedArrayItES5_jRi
0805e138 T _ZN8Samraksh5eMote13RadarInternal4InitEiRi
0805e148 T _ZN8Samraksh5eMote13RadarInternal6UninitERi
08062428 T _ZN8Samraksh5eMote14ProgramManager14ProgramManager12UpdaterStartEP16CLR_RT_HeapBlockjRi
080623c8 T _ZN8Samraksh5eMote14ProgramManager14ProgramManager12UpdaterStartEP16CLR_RT_HeapBlockRi
08062450 T _ZN8Samraksh5eMote14ProgramManager14ProgramManager21UpdaterSetDestinationEP16CLR_RT_HeapBlocktRi
08063468 T _ZN8Samraksh5eMote14RadarInterface5BlindEP16CLR_RT_HeapBlockRi
08063460 T _ZN8Samraksh5eMote14RadarInterface6TurnOnEP16CLR_RT_HeapBlockRi
08063464 T _ZN8Samraksh5eMote14RadarInterface7TurnOffEP16CLR_RT_HeapBlockRi
08062fd4 T _ZN8Samraksh5eMote17NonVolatileMemory13DataReference10CreateDataEP16CLR_RT_HeapBlockjhRi
08063064 T _ZN8Samraksh5eMote17NonVolatileMemory13DataReference10CreateDataEP16CLR_RT_HeapBlockjjRi
0806301c T _ZN8Samraksh5eMote17NonVolatileMemory13DataReference10CreateDataEP16CLR_RT_HeapBlockjtRi
08062fb4 T _ZN8Samraksh5eMote17NonVolatileMemory13DataReference10DeleteDataEP16CLR_RT_HeapBlockjRi
08062fa4 T _ZN8Samraksh5eMote17NonVolatileMemory13DataReference14LookupDataSizeEP16CLR_RT_HeapBlockjRi
08062f94 T _ZN8Samraksh5eMote17NonVolatileMemory13DataReference14LookupDataTypeEP16CLR_RT_HeapBlockjRi
08062f84 T _ZN8Samraksh5eMote17NonVolatileMemory13DataReference15GetDataLocationEP16CLR_RT_HeapBlockjRi
08062f74 T _ZN8Samraksh5eMote17NonVolatileMemory13DataReference16GetDataReferenceEP16CLR_RT_HeapBlockjRi
080630dc T _ZN8Samraksh5eMote17NonVolatileMemory13DataReference22GetLastDatastoreStatusEP16CLR_RT_HeapBlockRi
08063124 T _ZN8Samraksh5eMote17NonVolatileMemory13DataReference26DisposeNativeMemoryPointerEP16CLR_RT_HeapBlockjRi
080630ac T _ZN8Samraksh5eMote17NonVolatileMemory13DataReference9GetDataIDEP16CLR_RT_HeapBlockRi
0806326c T _ZN8Samraksh5eMote17NonVolatileMemory9DataStore11DataStoreGCEP16CLR_RT_HeapBlockRi
080631a0 T _ZN8Samraksh5eMote17NonVolatileMemory9DataStore12GetFreeBytesEP16CLR_RT_HeapBlockRi
08063190 T _ZN8Samraksh5eMote17NonVolatileMemory9DataStore12GetUsedBytesEP16CLR_RT_HeapBlockRi
08063180 T _ZN8Samraksh5eMote17NonVolatileMemory9DataStore13GetTotalSpaceEP16CLR_RT_HeapBlockRi
08063238 T _ZN8Samraksh5eMote17NonVolatileMemory9DataStore14EraseAllBlocksEP16CLR_RT_HeapBlockRi
08063138 T _ZN8Samraksh5eMote17NonVolatileMemory9DataStore15CreateDataStoreEP16CLR_RT_HeapBlockaRi
080631f4 T _ZN8Samraksh5eMote17NonVolatileMemory9DataStore17GetCountOfDataIdsEP16CLR_RT_HeapBlockRi
080631b0 T _ZN8Samraksh5eMote17NonVolatileMemory9DataStore17GetReadAllDataIdsEP16CLR_RT_HeapBlock17CLR_RT_TypedArrayIiEiiRi
080632a0 T _ZN8Samraksh5eMote17NonVolatileMemory9DataStore18GetReadWriteStatusEP16CLR_RT_HeapBlockRi
08063170 T _ZN8Samraksh5eMote17NonVolatileMemory9DataStore20GetMaxAllocationSizeEP16CLR_RT_HeapBlockRi
080632a4 T _ZN8Samraksh5eMote17NonVolatileMemory9DataStore22GetLastDatastoreStatusEP16CLR_RT_HeapBlockRi
08063388 T _ZN8Samraksh5eMote17NonVolatileMemory9DataStore7ReadRawEP16CLR_RT_HeapBlockj17CLR_RT_TypedArrayIhEjjhiRi
08063414 T _ZN8Samraksh5eMote17NonVolatileMemory9DataStore7ReadRawEP16CLR_RT_HeapBlockj17CLR_RT_TypedArrayIhEjjjiRi
080633cc T _ZN8Samraksh5eMote17NonVolatileMemory9DataStore7ReadRawEP16CLR_RT_HeapBlockj17CLR_RT_TypedArrayIhEjjtiRi
080632b4 T _ZN8Samraksh5eMote17NonVolatileMemory9DataStore8WriteRawEP16CLR_RT_HeapBlockj17CLR_RT_TypedArrayIhEjjhiRi
08063340 T _ZN8Samraksh5eMote17NonVolatileMemory9DataStore8WriteRawEP16CLR_RT_HeapBlockj17CLR_RT_TypedArrayIhEjjjiRi
080632f8 T _ZN8Samraksh5eMote17NonVolatileMemory9DataStore8WriteRawEP16CLR_RT_HeapBlockj17CLR_RT_TypedArrayIhEjjtiRi
08063204 T _ZN8Samraksh5eMote17NonVolatileMemory9DataStore9DeleteAllEP16CLR_RT_HeapBlockRi
08062b70 T _ZN8Samraksh5eMote24Algorithm_RadarDetection10InitializeEP16CLR_RT_HeapBlockRi
08062c3c T _ZN8Samraksh5eMote24Algorithm_RadarDetection12UninitializeEP16CLR_RT_HeapBlockRi
08062efc T _ZN8Samraksh5eMote24Algorithm_RadarDetection13GetLastUnwrapEP16CLR_RT_HeapBlockiRi
08062f6c T _ZN8Samraksh5eMote24Algorithm_RadarDetection18GetCountOverTargetEP16CLR_RT_HeapBlockRi
08062f48 T _ZN8Samraksh5eMote24Algorithm_RadarDetection18GetNetDisplacementEP16CLR_RT_HeapBlockiRi
08062ef0 T _ZN8Samraksh5eMote24Algorithm_RadarDetection19GetIQRejectionLevelEP16CLR_RT_HeapBlockRi
08062c64 T _ZN8Samraksh5eMote24Algorithm_RadarDetection20DetectionCalculationEP16CLR_RT_HeapBlock17CLR_RT_TypedArrayItES5_iRi
08062c40 T _ZN8Samraksh5eMote24Algorithm_RadarDetection20DetectionCalculationEP16CLR_RT_HeapBlock17CLR_RT_TypedArrayItES5_S5_iRi
08062f60 T _ZN8Samraksh5eMote24Algorithm_RadarDetection20GetDisplacementRangeEP16CLR_RT_HeapBlockiRi
08062f28 T _ZN8Samraksh5eMote24Algorithm_RadarDetection22GetWindowOverThresholdEP16CLR_RT_HeapBlockRi
08062c9c T _ZN8Samraksh5eMote24Algorithm_RadarDetection22SetDetectionParametersEP16CLR_RT_HeapBlockiddtttttRi
08062f54 T _ZN8Samraksh5eMote24Algorithm_RadarDetection23GetAbsoluteDisplacementEP16CLR_RT_HeapBlockiRi
08062e4c T _ZN8Samraksh5eMote24Algorithm_RadarDetection23GetBackgroundNoiseLevelEP16CLR_RT_HeapBlockiRi
08062f38 T _ZN8Samraksh5eMote24Algorithm_RadarDetection24CurrentDetectionFinishedEP16CLR_RT_HeapBlockRi
08062e98 T _ZN8Samraksh5eMote24Algorithm_RadarDetection28ResetBackgroundNoiseTrackingEP16CLR_RT_HeapBlockRi
08062470 T _ZN8Samraksh5eMote26Algorithm_DecisionFunction10InitializeEP16CLR_RT_HeapBlockttff17CLR_RT_TypedArrayIfES5_S5_Ri
08062494 T _ZN8Samraksh5eMote26Algorithm_DecisionFunction22NormalizeFeatureVectorEP16CLR_RT_HeapBlock17CLR_RT_TypedArrayIfES4_IiERi
080624b4 T _ZN8Samraksh5eMote26Algorithm_DecisionFunction6DecideEP16CLR_RT_HeapBlock17CLR_RT_TypedArrayIiERi
0806245c T _ZN8Samraksh5eMote27Algorithm_AcousticDetection20DetectionCalculationEP16CLR_RT_HeapBlock17CLR_RT_TypedArrayItEiS4_IdEaRi
0806246c T _ZN8Samraksh5eMote27Algorithm_AcousticDetection22SetDetectionParametersEP16CLR_RT_HeapBlockiiRi
080634f8 T _ZN8Samraksh5eMote3DSP10Statistics3SumEP16CLR_RT_HeapBlock17CLR_RT_TypedArrayIhERi
08063518 T _ZN8Samraksh5eMote3DSP10Statistics3SumEP16CLR_RT_HeapBlock17CLR_RT_TypedArrayIjERi
08063508 T _ZN8Samraksh5eMote3DSP10Statistics3SumEP16CLR_RT_HeapBlock17CLR_RT_TypedArrayItERi
08063528 T _ZN8Samraksh5eMote3DSP10Statistics3SumEP16CLR_RT_HeapBlock17CLR_RT_TypedArrayIyERi
08063578 T _ZN8Samraksh5eMote3DSP10Statistics4ModeEP16CLR_RT_HeapBlock17CLR_RT_TypedArrayIhERi
08063598 T _ZN8Samraksh5eMote3DSP10Statistics4ModeEP16CLR_RT_HeapBlock17CLR_RT_TypedArrayIjERi
08063588 T _ZN8Samraksh5eMote3DSP10Statistics4ModeEP16CLR_RT_HeapBlock17CLR_RT_TypedArrayItERi
080635a8 T _ZN8Samraksh5eMote3DSP10Statistics4ModeEP16CLR_RT_HeapBlock17CLR_RT_TypedArrayIyERi
08063538 T _ZN8Samraksh5eMote3DSP10Statistics6MedianEP16CLR_RT_HeapBlock17CLR_RT_TypedArrayIhERi
08063558 T _ZN8Samraksh5eMote3DSP10Statistics6MedianEP16CLR_RT_HeapBlock17CLR_RT_TypedArrayIjERi
08063548 T _ZN8Samraksh5eMote3DSP10Statistics6MedianEP16CLR_RT_HeapBlock17CLR_RT_TypedArrayItERi
08063568 T _ZN8Samraksh5eMote3DSP10Statistics6MedianEP16CLR_RT_HeapBlock17CLR_RT_TypedArrayIyERi
080635b8 T _ZN8Samraksh5eMote3DSP10Statistics8VarianceEP16CLR_RT_HeapBlock17CLR_RT_TypedArrayIhERi
080635d8 T _ZN8Samraksh5eMote3DSP10Statistics8VarianceEP16CLR_RT_HeapBlock17CLR_RT_TypedArrayIjERi
080635c8 T _ZN8Samraksh5eMote3DSP10Statistics8VarianceEP16CLR_RT_HeapBlock17CLR_RT_TypedArrayItERi
080635e8 T _ZN8Samraksh5eMote3DSP10Statistics8VarianceEP16CLR_RT_HeapBlock17CLR_RT_TypedArrayIyERi
080635f8 T _ZN8Samraksh5eMote3DSP10Transforms3FFTEP16CLR_RT_HeapBlock17CLR_RT_TypedArrayIhES6_tRi
08063620 T _ZN8Samraksh5eMote3DSP10Transforms3FFTEP16CLR_RT_HeapBlock17CLR_RT_TypedArrayIjES6_tRi
08063634 T _ZN8Samraksh5eMote3DSP10Transforms3FFTEP16CLR_RT_HeapBlock17CLR_RT_TypedArrayIsES6_tRi
0806360c T _ZN8Samraksh5eMote3DSP10Transforms3FFTEP16CLR_RT_HeapBlock17CLR_RT_TypedArrayItES6_tRi
08063670 T _ZN8Samraksh5eMote3DSP10Transforms4IFFTEP16CLR_RT_HeapBlock17CLR_RT_TypedArrayIhES6_tRi
08063698 T _ZN8Samraksh5eMote3DSP10Transforms4IFFTEP16CLR_RT_HeapBlock17CLR_RT_TypedArrayIjES6_tRi
08063684 T _ZN8Samraksh5eMote3DSP10Transforms4IFFTEP16CLR_RT_HeapBlock17CLR_RT_TypedArrayItES6_tRi
08062340 T _ZN8Samraksh5eMote3Net5Radio19Radio_802_15_4_Base10SendStrobeEP16CLR_RT_HeapBlockhtRi
080622f0 T _ZN8Samraksh5eMote3Net5Radio19Radio_802_15_4_Base10SetChannelEP16CLR_RT_HeapBlockhiRi
080622dc T _ZN8Samraksh5eMote3Net5Radio19Radio_802_15_4_Base10SetTxPowerEP16CLR_RT_HeapBlockhiRi
080622c8 T _ZN8Samraksh5eMote3Net5Radio19Radio_802_15_4_Base12SetRadioNameEP16CLR_RT_HeapBlockhRi
08062298 T _ZN8Samraksh5eMote3Net5Radio19Radio_802_15_4_Base12UnInitializeEP16CLR_RT_HeapBlockhRi
080622ac T _ZN8Samraksh5eMote3Net5Radio19Radio_802_15_4_Base15GetRadioAddressEP16CLR_RT_HeapBlockhRi
0806237c T _ZN8Samraksh5eMote3Net5Radio19Radio_802_15_4_Base15SendTimeStampedEP16CLR_RT_HeapBlockh17CLR_RT_TypedArrayIhEtjRi
080622b8 T _ZN8Samraksh5eMote3Net5Radio19Radio_802_15_4_Base15SetRadioAddressEP16CLR_RT_HeapBlockhtRi
080623a4 T _ZN8Samraksh5eMote3Net5Radio19Radio_802_15_4_Base21ClearChannelAssesmentEP16CLR_RT_HeapBlockhRi
080623b8 T _ZN8Samraksh5eMote3Net5Radio19Radio_802_15_4_Base21ClearChannelAssesmentEP16CLR_RT_HeapBlockhtRi
08062354 T _ZN8Samraksh5eMote3Net5Radio19Radio_802_15_4_Base4SendEP16CLR_RT_HeapBlockh17CLR_RT_TypedArrayIhEtRi
0806231c T _ZN8Samraksh5eMote3Net5Radio19Radio_802_15_4_Base5SleepEP16CLR_RT_HeapBlockhhRi
08062328 T _ZN8Samraksh5eMote3Net5Radio19Radio_802_15_4_Base7PreLoadEP16CLR_RT_HeapBlock17CLR_RT_TypedArrayIhEtRi
08062304 T _ZN8Samraksh5eMote3Net5Radio19Radio_802_15_4_Base8TurnOnRxEP16CLR_RT_HeapBlockhRi
08062310 T _ZN8Samraksh5eMote3Net5Radio19Radio_802_15_4_Base9TurnOffRxEP16CLR_RT_HeapBlockhRi
08061e90 T _ZN8Samraksh5eMote3Net7MACBase12RemovePacketEP16CLR_RT_HeapBlockRi
08061f48 T _ZN8Samraksh5eMote3Net7MACBase12UnInitializeEP16CLR_RT_HeapBlockRi
080620f8 T _ZN8Samraksh5eMote3Net7MACBase13EnqueueToSendEP16CLR_RT_HeapBlockth17CLR_RT_TypedArrayIhEttjRi
080620dc T _ZN8Samraksh5eMote3Net7MACBase13EnqueueToSendEP16CLR_RT_HeapBlockth17CLR_RT_TypedArrayIhEttRi
20007b0c B _ZN8Samraksh5eMote3Net7MACBase13Event_HandlerE
08062044 T _ZN8Samraksh5eMote3Net7MACBase13GetNextPacketEP16CLR_RT_HeapBlock17CLR_RT_TypedArrayIhERi
080620b0 T _ZN8Samraksh5eMote3Net7MACBase18GetPacketWithIndexEP16CLR_RT_HeapBlock17CLR_RT_TypedArrayIhEhtRi
08061f50 T _ZN8Samraksh5eMote3Net7MACBase18InternalInitializeEP16CLR_RT_HeapBlock17CLR_RT_TypedArrayIhEhRi
0806205c T _ZN8Samraksh5eMote3Net7MACBase19GetNeighborInternalEP16CLR_RT_HeapBlockt17CLR_RT_TypedArrayIhERi
08061fe8 T _ZN8Samraksh5eMote3Net7MACBase19InternalReConfigureEP16CLR_RT_HeapBlock17CLR_RT_TypedArrayIhERi
080620d0 T _ZN8Samraksh5eMote3Net7MACBase22GetPacketSizeWithIndexEP16CLR_RT_HeapBlockPhtRi
08061efc T _ZN8Samraksh5eMote3Net7MACBase22PendingSendPacketCountEP16CLR_RT_HeapBlockRi
08062074 T _ZN8Samraksh5eMote3Net7MACBase23GetNeighborListInternalEP16CLR_RT_HeapBlock17CLR_RT_TypedArrayItERi
08061eec T _ZN8Samraksh5eMote3Net7MACBase25PendingReceivePacketCountEP16CLR_RT_HeapBlockRi
08062098 T _ZN8Samraksh5eMote3Net7MACBase26GetMACNeighborListInternalEP16CLR_RT_HeapBlock17CLR_RT_TypedArrayItERi
0806208c T _ZN8Samraksh5eMote3Net7MACBase29DeletePacketWithIndexInternalEP16CLR_RT_HeapBlocktRi
08062158 T _ZN8Samraksh5eMote3Net7MACBase4SendEP16CLR_RT_HeapBlockt17CLR_RT_TypedArrayIhEttjRi
08061f0c T _ZN8Samraksh5eMote3Net7MACBase4SendEP16CLR_RT_HeapBlockt17CLR_RT_TypedArrayIhEttRi
08062198 T _ZN8Samraksh5eMote3Net7MACBase4SendEP16CLR_RT_HeapBlockth17CLR_RT_TypedArrayIhEttjRi
0806211c T _ZN8Samraksh5eMote3Net7MACBase4SendEP16CLR_RT_HeapBlockth17CLR_RT_TypedArrayIhEttRi
20007a88 B _ZN8Samraksh5eMote3Net7MACBase7MyAppIDE
0805ec74 T _ZN8Samraksh5eMote6DotNow10SDInternal12InternalReadE17CLR_RT_TypedArrayIhEttjRi
0805ec30 T _ZN8Samraksh5eMote6DotNow10SDInternal13InternalWriteE17CLR_RT_TypedArrayIhEttjRi
0805ec18 T _ZN8Samraksh5eMote6DotNow10SDInternal18InternalInitializeERi
0805e5e4 T _ZN8Samraksh5eMote6DotNow11ADCInternal12StopSamplingERi
0805e5c8 T _ZN8Samraksh5eMote6DotNow11ADCInternal15DualChannelReadE17CLR_RT_TypedArrayItERi
0805e4f0 T _ZN8Samraksh5eMote6DotNow11ADCInternal18ConfigureBatchModeE17CLR_RT_TypedArrayItEijjRi
0805e518 T _ZN8Samraksh5eMote6DotNow11ADCInternal23ConfigureContinuousModeE17CLR_RT_TypedArrayItEijjRi
0805e574 T _ZN8Samraksh5eMote6DotNow11ADCInternal29ConfigureBatchModeDualChannelE17CLR_RT_TypedArrayItES4_jjRi
0805e5f0 T _ZN8Samraksh5eMote6DotNow11ADCInternal30SetPeriodicADCSamplingIntervalEddRi
0805e5b8 T _ZN8Samraksh5eMote6DotNow11ADCInternal34ConfigureBatchModeWithThresholdingE17CLR_RT_TypedArrayItEijjjRi
0805e540 T _ZN8Samraksh5eMote6DotNow11ADCInternal34ConfigureContinuousModeDualChannelE17CLR_RT_TypedArrayItES4_jjRi
0805e5a8 T _ZN8Samraksh5eMote6DotNow11ADCInternal39ConfigureContinuousModeWithThresholdingE17CLR_RT_TypedArrayItEijjjRi
0805e4b0 T _ZN8Samraksh5eMote6DotNow11ADCInternal4InitEiRi
0805e4e0 T _ZN8Samraksh5eMote6DotNow11ADCInternal4ReadEiRi
0805e4c8 T _ZN8Samraksh5eMote6DotNow11ADCInternal6UninitERi
080634d8 T _ZN8Samraksh5eMote6DotNow3NOR12InternalReadE17CLR_RT_TypedArrayItEjtRi
08063480 T _ZN8Samraksh5eMote6DotNow3NOR13InternalWriteE17CLR_RT_TypedArrayItEjtRi
080634c8 T _ZN8Samraksh5eMote6DotNow3NOR13InternalWriteE17CLR_RT_TypedArrayItEjttRi
0806346c T _ZN8Samraksh5eMote6DotNow3NOR18InternalInitializeERi
0806345c T _ZN8Samraksh5eMote8Platform23GetPlatformTypeInternalERi
0803da5c T _ZN8Samraksh5eMote8RealTime5Timer17GenerateInterruptEP16CLR_RT_HeapBlockRi
0803da4c T _ZN8Samraksh5eMote8RealTime5Timer6ChangeEP16CLR_RT_HeapBlockjjRi
0803da44 T _ZN8Samraksh5eMote8RealTime5Timer7DisposeEP16CLR_RT_HeapBlockRi
08023be8 T _ZN9CLR_Debug4EmitEPKci
08023bd4 T _ZN9CLR_Debug5FlushEv
08023d60 T _ZN9CLR_Debug6PrintfEPKcz
08023d24 T _ZN9CLR_Debug7PrintfVEPKcSt9__va_list
08045350 T _ZNK13CLR_RECORD_EH8GetTokenEv
08024e40 T _ZNK15BlockDeviceInfo17FindForBlockUsageEjRjS0_S0_
08024dcc T _ZNK15BlockDeviceInfo18FindNextUsageBlockEjRjS0_S0_
08024d4c T _ZNK15BlockDeviceInfo21FindRegionFromAddressEjRjS0_
08045404 T _ZNK15CLR_RT_Assembly14IsSameAssemblyERKS_
08042160 T _ZNK16CLR_RT_HeapBlock22GetAtomicDataUsedBytesEv
08045704 T _ZNK16CLR_RT_HeapBlock24TransparentProxyValidateEv
080420a8 T _ZNK16CLR_RT_HeapBlock6IsZeroEv
08045294 T _ZNK19CLR_RECORD_ASSEMBLY10GoodHeaderEv
080452f0 T _ZNK19CLR_RECORD_ASSEMBLY12GoodAssemblyEv
08040c2c T _ZNK22CLR_RT_ExecutionEngine30UpdateToLowestExecutionCounterEP13CLR_RT_Thread
08044eb0 T _ZNK23CLR_RT_TypeDef_Instance12HasFinalizerEv
08044ca8 T _ZNK26CLR_RT_ReflectionDef_Index11GetTypeHashEv
08024370 T _ZNK39CLR_RT_HeapBlock_WeakReference_Identity10ComputeCRCEPKhj
         U _ZNSt8ios_base4InitC1Ev
         U _ZNSt8ios_base4InitD1Ev
2000529c b _ZZ11TimeHandlerPvE16timeHandlerCount
200076c4 b _ZZ14calculatePhasePtS_S_issittttE11countRepeat
200015b0 d _ZZ14calculatePhasePtS_S_issittttE12countPrimary
200015ac d _ZZ14calculatePhasePtS_S_issittttE12markerRepeat
200015ae d _ZZ14calculatePhasePtS_S_issittttE13markerPrimary
20007690 b _ZZ14calculatePhasePtS_S_issittttE14checksumRepeat
20007664 b _ZZ14calculatePhasePtS_S_issittttE15checksumPrimary
080718d0 t _ZZ14CPU_Radio_SendhPvtE8__func__
08071758 t _ZZ15CPU_Radio_SleephhE8__func__
08073614 V _ZZ16CLR_TkFromStreamRPKhE8c_lookup
20005694 b _ZZ17I2C_Event_HandlerE15i2cEventTimeout
200034c8 b _ZZ17USART1_IRQHandlerE3buf
200034c0 b _ZZ17USART1_IRQHandlerE3idx
080718a4 t _ZZ18CPU_Radio_TurnOnRxhE8__func__
08071744 t _ZZ19CPU_Radio_TurnOffRxhE8__func__
08071874 t _ZZ20CPU_Radio_GetAddresshE8__func__
08071804 t _ZZ20CPU_Radio_InitializeP17RadioEventHandlerhhhE8__func__
08071798 t _ZZ20CPU_Radio_SendStrobehtE8__func__
080718b8 t _ZZ20CPU_Radio_SetAddresshtE8__func__
0807181c t _ZZ22CPU_Radio_SetRadioNameaE8__func__
0807188c t _ZZ22CPU_Radio_UnInitializehE8__func__
08073620 V _ZZ23CLR_UncompressTypeTokenjE8c_lookup
08071780 t _ZZ23CPU_Radio_ChangeChannelhiE8__func__
08071768 t _ZZ23CPU_Radio_ChangeTxPowerhiE8__func__
0807361c V _ZZ24CLR_UncompressFieldTokenjE8c_lookup
08073618 V _ZZ25CLR_UncompressMethodTokenjE8c_lookup
080717b0 t _ZZ26CPU_Radio_Send_TimeStampedhPvtjE8__func__
08071834 t _ZZ31CPU_Radio_ClearChannelAssesmenthE8__func__
08071854 t _ZZ31CPU_Radio_ClearChannelAssesmenthjE8__func__
20003450 b _ZZ5SleepvE13ticks_carried
2000345c b _ZZ5SleepvE14ticks_carried3
20007bdc b _ZZN10Data_Store11searchForIDEjE12recordOffset
20007be4 b _ZZN10Data_Store11searchForIDEjE17prevBlockSearched
200015f4 d _ZZN10Data_Store16createAllocationEjPvjjE14blockIdCounter
20004180 b _ZZN10RF231Radio15HandleInterruptEvE9irq_cause
20001c40 b _ZZN11CLR_RT_DUMP15GETERRORMESSAGEEiE5s_tmp
200060c0 b _ZZN15CLR_HW_Hardware15ProcessActivityEvE10lastStatus
20005808 b _ZZN15Watchdog_Driver16WatchdogCallbackEPvE15iReentrantState
20001528 d _ZZN15Watchdog_Driver16WatchdogCallbackEPvE8lastTime
20001b78 b _ZZN16CLR_DBG_Debugger12Monitor_PingEP10WP_MessagePvE16previousPingTime
20005298 b _ZZN16DiscoveryHandler4SendEtP23IEEE802_15_4_Message_t2tyE9seqNumber
20005290 b _ZZN20DataReceptionHandler11SendDataACKEvE17softwareAckHeader
2000528c b _ZZN20DataReceptionHandler11SendDataACKEvE1i
08089084 t _ZZN21Samraksh_Emote_Update13InitializeMacEvE8__func__
20007a2c b _ZZN21Samraksh_Emote_Update28Wireless_Phy_TransmitMessageEPvPK10WP_MessageE17rand_neighbor_idx
20001d09 b _ZZN7csmaMAC15SendTimeStampedEthPvijE9seqNumber
20001d50 b _ZZN7csmaMAC4SendEthPviE9seqNumber
200034f4 b _ZZN8OMACType14ReceiveHandlerEP23IEEE802_15_4_Message_t2iE2pt
200040b8 b _ZZN8OMACType20PrepareMessageBufferEthPviE9seqNumber
20001c3c b _ZZN9CLR_Debug4EmitEPKciE7s_chars
20001c60 b _ZZN9CLR_Debug4EmitEPKciE8s_buffer
08068894 T acos
0803f2a4 T ADC_ClearITPendingBit
0803f178 T ADC_Cmd
0803f0c4 T ADC_DeInit
0803f190 T ADC_DMACmd
0803f284 T ADC_ExternalTrigConvCmd
0803f1d0 T ADC_GetCalibrationStatus
0803f29c T ADC_GetConversionValue
0803f1b4 T ADC_GetResetCalibrationStatus
0803ac3c T ADC_HAL_HANDLER
0803f12c T ADC_Init
20001424 D ADC_MODULE
0803f1f8 T ADC_RegularChannelConfig
0803f1a8 T ADC_ResetCalibration
0803f1e0 T ADC_SoftwareStartConvCmd
0803f1c4 T ADC_StartCalibration
0803e55c T ADC1_2_IRQHandler
0803ec68 T ADC3_IRQHandler
0805e438 T ADCInteropCallback
200052c4 B adcNumSamples
08073228 t ADCPrescTable
200052a4 B adcSamplingTime
08073218 t APBAHBPrescTable
08067efc T arm_bitreversal_q15
08064e88 T arm_cfft_radix4_init_q15
080660ec T arm_cfft_radix4_q15
08065810 T arm_radix4_butterfly_inverse_q15
08064f28 T arm_radix4_butterfly_q15
08020000 T ARM_Vectors
08089180 T armBitRevTable
08068938 T asin
08067f60 T atan
080689dc T atan2
0808ca28 t atanhi
0808ca08 t atanlo
200052bc B batchModeADC
08033974 T BKP_ReadBackupRegister
08033954 T BKP_WriteBackupRegister
0808ccea t blanks.7055
080351cc T BootEntry
f1e0f85f a BootRAM
08033ac4 T BootstrapCode
0808caf8 t bp
0806cbf2 T bsearch
00000000 a BUILD_RTM
00000000 a BUILD_RTM
00000000 a BUILD_RTM
080744f0 T c_CLR_radians
08073fc8 T c_CLR_RT_DataTypeLookup
08073e8c T c_CLR_RT_OpcodeLookup
08070a24 T c_Debugger_Lookup_Reply
08070a1c T c_Debugger_Lookup_Reply_count
08070854 T c_Debugger_Lookup_Request
08070a20 T c_Debugger_Lookup_Request_count
0803e61c T CAN1_RX1_IRQHandler
0803e65c T CAN1_SCE_IRQHandler
20007bb4 b CardType
08068280 T ceil
20007bb8 b CID_Tab
080636c0 t CmdError
080637c0 t CmdResp1Error
08063774 t CmdResp2Error
08063738 t CmdResp3Error
080638ec t CmdResp6Error
080636e8 t CmdResp7Error
00000001 a COMPILE_THUMB2
00000001 a COMPILE_THUMB2
00000001 a COMPILE_THUMB2
20007704 B config
080636ac t convert_from_bytes_to_power_of_two
0806cbe4 T copysign
08068388 T cos
080689e0 T cosh
20007ba4 b CSD_Tab
20001d0c B csmaSendToRadioFailCount
200021b8 B currentMacName
20003469 B currentRadioAckType
20003468 B currentRadioName
20017e00 R CustomHeapBegin
20017ff8 R CustomHeapEnd
0805f764 T DAC_Cmd
0805f734 T DAC_Init
200075fc B DAC_InitStructure
0805f7c8 T DAC_SetChannel1Data
0805f794 T DAC_SoftwareTriggerCmd
08033ad4 T DBGMCU_Config
080350a8 T debug_printf
0803e10c T Default_Handler
08029e28 T DefaultRadioInterruptHandler
08029e20 T DefaultReceiveHandler
20001350 D defaultRxDoneState
08029e24 T DefaultSendAckHandler
20008270 B DestBuffer
20007bc8 b DeviceMode
0803f4a8 T DMA_ClearFlag
0803f4c4 T DMA_ClearITPendingBit
0803f450 T DMA_Cmd
0803f2ac T DMA_DeInit
0803f480 T DMA_GetFlagStatus
0803ac50 T DMA_HAL_HANDLER
0803f410 T DMA_Init
0803f46c T DMA_ITConfig
0803e378 T DMA1_Channel1_IRQHandler
0803e3dc T DMA1_Channel2_IRQHandler
0803e41c T DMA1_Channel3_IRQHandler
0803e45c T DMA1_Channel4_IRQHandler
0803e49c T DMA1_Channel5_IRQHandler
0803e4dc T DMA1_Channel6_IRQHandler
0803e51c T DMA1_Channel7_IRQHandler
0803ee28 T DMA2_Channel1_IRQHandler
0803ee68 T DMA2_Channel2_IRQHandler
0803eea8 T DMA2_Channel3_IRQHandler
0803eee8 T DMA2_Channel4_5_IRQHandler
200052b8 B dmaModeInitialized
0808cad8 t dp_h
0808cae8 t dp_l
200052c0 B dualADCMode
20001420 D EMOTE_ADC_CHANNEL
080201f0 T EntryPoint
08068aa0 T exp
0806c6e8 T expm1
08033be0 T EXTI_ClearITPendingBit
08033af8 T EXTI_DeInit
08033bc0 T EXTI_GetITStatus
08033b18 T EXTI_Init
08033bb0 T EXTI_StructInit
0803ef28 T EXTI0_IRQHandler
0803e26c T EXTI1_IRQHandler
0803eacc T EXTI15_10_IRQHandler
0803e2c4 T EXTI2_IRQHandler
0803e300 T EXTI3_IRQHandler
0803e33c T EXTI4_IRQHandler
0803e69c T EXTI9_5_IRQHandler
200014a4 D EXTILines
080683f4 T fabs
080249b8 T Fault_Handler_Display
08063b18 t FindSCR
0806caec T finite
08033ce4 T FLASH_ErasePage
08033c24 T FLASH_GetBank1Status
08033c64 T FLASH_GetBank2Status
0803e1f4 T FLASH_IRQHandler
08033bec T FLASH_SetLatency
08033c00 T FLASH_Unlock
08033ca4 T FLASH_WaitForLastBank1Operation
08033cc4 T FLASH_WaitForLastBank2Operation
08068400 T floor
08068b90 T fmod
0803eca8 T FSMC_IRQHandler
0803f5b0 T FSMC_NORSRAMCmd
0803f4e0 T FSMC_NORSRAMInit
20007648 B g_adcContext
200052c8 B g_adcDriverBufferChannel1Ptr
200052cc B g_adcDriverBufferDualModePtr
200052d0 B g_adcUserBufferChannel1Ptr
200052b0 B g_adcUserBufferChannel2Ptr
200050f4 B g_BlockStorageUpdate
200013a4 D g_BlockStorageUpdateProvider
20005828 B g_buildCRC
200052b4 B g_callback
08088f58 T g_CLR_AssemblyNative_ADC
08088a94 T g_CLR_AssemblyNative_CSMACallback
08088678 T g_CLR_AssemblyNative_MACCallback
080884e4 T g_CLR_AssemblyNative_Microsoft_SPOT_EventSink_DriverProcs
080884f0 T g_CLR_AssemblyNative_Microsoft_SPOT_Hardware
080884fc T g_CLR_AssemblyNative_Microsoft_SPOT_Hardware_SerialPort
08088648 T g_CLR_AssemblyNative_Microsoft_SPOT_Hardware_UsartError
08088508 T g_CLR_AssemblyNative_Microsoft_SPOT_Hardware_UsartEvent
08088010 T g_CLR_AssemblyNative_Microsoft_SPOT_Native
08088024 T g_CLR_AssemblyNative_Microsoft_SPOT_Update
0807a224 T g_CLR_AssemblyNative_mscorlib
08088660 T g_CLR_AssemblyNative_OMACCallback
08088de8 T g_CLR_AssemblyNative_Radar
08088684 T g_CLR_AssemblyNative_RadioCallback_802_15_4
080719fc T g_CLR_AssemblyNative_RealTimeInteropTimer
08088dcc T g_CLR_AssemblyNative_Samraksh_eMote
08088e10 T g_CLR_AssemblyNative_Samraksh_eMote_DotNow
08089018 T g_CLR_AssemblyNative_Samraksh_eMote_DSP
08088a88 T g_CLR_AssemblyNative_Samraksh_eMote_Net
08088aac T g_CLR_AssemblyNative_Samraksh_eMote_ProgramManager
08071a08 T g_CLR_AssemblyNative_Samraksh_eMote_RealTime
08088f7c T g_CLR_AssemblyNative_SD
0807a348 T g_CLR_AssemblyNative_SMO
08088b04 T g_CLR_AssemblyNative_UpdaterProgressCallback
20005d00 B g_CLR_DBG_Debuggers
20005b04 B g_CLR_HW_Hardware
20001548 D g_CLR_InteropAssembliesNativeData
20001b84 B g_CLR_Messaging
20005ecc B g_CLR_RT_EventCache
20005b40 B g_CLR_RT_ExecutionEngine
200059a8 B g_CLR_RT_fBadStack
20005a8c B g_CLR_RT_GarbageCollector
200059b0 B g_CLR_RT_Persistence_Manager
20005dbc B g_CLR_RT_TypeSystem
20005af8 B g_CLR_RT_WellKnownMethods
20005834 B g_CLR_RT_WellKnownTypes
080ff000 R g_ConfigurationSector
200013d4 D g_CrcUpdateValidationProvider
20001d10 B g_csmaMacObject
20007bf4 B g_dataStoreObject
200012f8 D g_DebuggerPortSslConfig
20001d88 B g_Event_Callback
20001d90 B g_Event_Callback_Arg
20001d58 B g_Events_BoolTimerCompletion
2000446c B g_fDoNotUninitializeDebuggerPort
200050a8 B g_HAL_Completion_List
200050c8 B g_HAL_Continuation_List
0807332c t g_HardwareTimerIDs
08071720 t g_HardwareTimerIDs
08073600 t g_HardwareTimerIDs
200052e0 B g_I2C_Driver
200025e0 B g_NeighborTable
200034f8 B g_OMAC
2000580c B g_palEventDriver
20001338 D g_PortableArrayKitUpdateProvider
20007640 B g_Radar_Driver_Initialized
20007754 B g_radarBufferSize
20007644 B g_radarContext
20007744 B g_radarUserBufferChannel1Ptr
200076f4 B g_radarUserBufferChannel2Ptr
20007638 B g_radarUserData
200021bc B g_receive_buffer
20007760 B g_Samraksh_Emote_Update
20005820 B g_scratchDebugger
20005d08 B g_scratchDebuggerMessaging
200066e0 B g_scratchInlineBuffer
200060dc B g_scratchInterruptDispatchingStorage
20001b88 B g_scratchMessaging
20006b64 B g_scratchVirtualMethodPayload
20007168 B g_scratchVirtualMethodTableLink
200073f0 B g_scratchVirtualMethodTableLinkMRU
20007660 B g_sdContext
20007758 B g_SDIODriver
20001d94 B g_send_buffer
20003418 B g_STM32F10x_AdvancedTimer
20005680 B g_STM32F10x_i2c_driver
20003470 B g_STM32F10x_RTC
200033f0 B g_STM32F10x_Timer_Configuration
200052a0 B g_Time_Driver
200056c8 B g_TimeDriver
2000349c B g_Timer16Bit_Driver
20007630 B g_UpdateManager_Driver_Initialized
2000761c B g_UpdateManagerContext
20007620 B g_UpdateManagerInterruptEnabled
20007628 B g_UpdateManagerUserData
0807173c T g_UpdatePackageCount
20001304 D g_UpdatePackages
200032c0 B g_Updates
200057d8 B g_Watchdog_Driver
200056b4 B gNORDriver
0803c454 T GPIO_ConfigurePinC
08033eb8 T GPIO_EXTILineConfig
08033d6c T GPIO_Init
08033e34 T GPIO_PinRemapConfig
200014e4 D GPIO_PORT_ARRAY
08033e08 T GPIO_ReadInputDataBit
08033e18 T GPIO_ReadOutputDataBit
08033e28 T GPIO_WriteBit
20004188 B grf231Radio
200040e0 B grf231RadioLR
20004b98 B gVirtualTimerObject
08027850 T HAL_Time_CurrentTicks
20004ac0 B Hal_Usart_State
0808ca98 t halF
080718e0 T HalName
2000130c D HalSystemConfig
08024a14 T HARD_Breakpoint
08024a08 T HARD_Breakpoint_Handler
0803e040 T HardFault_Handler
0803dd88 T HardFault_HandlerC
200082e0 R HeapBegin
20017df8 R HeapEnd
20001500 D I2C_BUS_ARRAY
0803f764 T I2C_ClearFlag
0803f6f8 T I2C_Cmd
0803f5dc T I2C_DeInit
0803ca1c T I2C_Error_Handler
0803c76c T I2C_Event_Handler
0803f714 T I2C_GenerateSTART
0803f618 T I2C_Init
0803f730 T I2C_ITConfig
0803f748 T I2C_SoftwareResetCmd
0803e8e8 T I2C1_ER_IRQHandler
0803e884 T I2C1_EV_IRQHandler
0803e98c T I2C2_ER_IRQHandler
0803e94c T I2C2_EV_IRQHandler
0007e834 A Image$$ER_FLASH$$Length
20001008 A Image$$ER_RAM_RO$$Base
00000000 A Image$$ER_RAM_RO$$Length
20001010 D Image$$ER_RAM_RW$$Base
000072cc A Image$$ER_RAM_RW$$Length
20001a70 B Image$$ER_RAM_RW$$ZI$$Base
0000686c A Image$$ER_RAM_RW$$ZI$$Length
20001608 d impure_data
0808cc90 t init_jk
20004228 B interrupt
08063978 t IsCardProgramming
200014a0 D isErased
080350e8 T lcd_printf
20001a34 d lconv
0808cab8 t ln2HI
0808caa8 t ln2LO
08020000 T Load$$ER_FLASH$$Base
0809e840 A Load$$ER_RAM_RO$$Base
0809e840 A Load$$ER_RAM_RW$$Base
2000448c B LOAD_IMAGE_Length
20004488 B LOAD_IMAGE_Start
08068c4c T log
08068d44 T log10
20007a8c B MACInteropBuffer
         U malloc
200049bc B ManagedCodeRxBuffer_Com
0805ecc0 T ManagedSDCallback
0806caf8 T matherr
0806e98c T memchr
0806cc98 T memcmp
0806ccb6 T memcpy
0806cccc T memmove
0806cd02 T memset
08068538 T modf
0806cafc T nan
20007618 B Net_ne_Context
20007610 B Net_ne_userData
0808cb08 t npio2_hw
0803bd6c T NVIC_Init
0803bd58 T NVIC_PriorityGroupConfig
0803bddc T NVIC_SystemLPConfig
200034d0 B OEM_Model_SKU
0808cd4c t p05.5397
20001508 D pCoreDebug
0803e0a4 T PendSV_Handler
20001520 D pInterruptType
0808cca0 t PIo2
2000151c D pITM
00000001 a PLATFORM_ARM_EmoteDotNow
00000001 a PLATFORM_ARM_EmoteDotNow
00000001 a PLATFORM_ARM_EmoteDotNow
00000001 a PLATFORM_ARM_STM32F10x
00000001 a PLATFORM_ARM_STM32F10x
00000001 a PLATFORM_ARM_STM32F10x
20001510 D pMPU
20001514 D pNVIC
08068e40 T pow
0802029c T PrepareImageRegions
08043a64 T private_free
080485ac T private_malloc
20001518 D pSCB
2000150c D pSysTick
0803e124 T PVD_IRQHandler
08033eec T PWR_BackupAccessCmd
08033f38 T PWR_EnterSTANDBYMode
08033ef8 T PWR_EnterSTOPMode
0806dd5c t quorem
20001d08 B RadioLockUp
20007bcc b RCA
08034044 T RCC_ADCCLKConfig
08033fa4 T RCC_AdjustHSICalibrationValue
0803419c T RCC_AHBPeriphClockCmd
080341e4 T RCC_APB1PeriphClockCmd
0803422c T RCC_APB1PeriphResetCmd
080341c0 T RCC_APB2PeriphClockCmd
08034208 T RCC_APB2PeriphResetCmd
08033f64 T RCC_DeInit
080340b4 T RCC_GetClocksFreq
08034250 T RCC_GetFlagStatus
08033ff4 T RCC_GetSYSCLKSource
08034004 T RCC_HCLKConfig
0803e230 T RCC_IRQHandler
08034058 T RCC_LSEConfig
0803408c T RCC_LSICmd
08034018 T RCC_PCLK1Config
0803402c T RCC_PCLK2Config
08033fd4 T RCC_PLLCmd
08033fbc T RCC_PLLConfig
080340a8 T RCC_RTCCLKCmd
08034098 T RCC_RTCCLKConfig
08033fe0 T RCC_SYSCLKConfig
20004258 B RealTimeCount
2000426c B RealTimeTimerMicrosecs
0806910c T remainder
080685cc T rint
080343b0 T RTC_ClearFlag
080343c4 T RTC_ClearITPendingBit
080342bc T RTC_EnterConfigMode
080342d0 T RTC_ExitConfigMode
080342e8 T RTC_GetCounter
08034398 T RTC_GetFlagStatus
0803e19c T RTC_IRQHandler
08034294 T RTC_ITConfig
08034334 T RTC_SetAlarm
08034314 T RTC_SetPrescaler
08034354 T RTC_WaitForLastTask
0803436c T RTC_WaitForSynchro
08029740 T RTCAlarm_IRQHandler
200044d0 B RxBuffer_Com
20005a88 B s_CLR_RT_fTrace_AssemblyOverhead
20001530 D s_CLR_RT_fTrace_Exceptions
20005b00 B s_CLR_RT_fTrace_MemoryStats
2000582c B s_CLR_RT_Heap
20001538 D s_TickMask
20001540 D s_UTCMask
00000001 a SAM_APP_TINYCLR
00000001 a SAM_APP_TINYCLR
00000001 a SAM_APP_TINYCLR
20017e00 a SAM_CUSTOM_HEAP_BEGIN
20017e00 a SAM_CUSTOM_HEAP_BEGIN
20017e00 a SAM_CUSTOM_HEAP_BEGIN
20017ff8 a SAM_CUSTOM_HEAP_END
20017ff8 a SAM_CUSTOM_HEAP_END
20017ff8 a SAM_CUSTOM_HEAP_END
2000f5ac a SAM_HEAP_BEGIN
2000f5ac a SAM_HEAP_BEGIN
2000f5ac a SAM_HEAP_BEGIN
20017df8 a SAM_HEAP_END
20017df8 a SAM_HEAP_END
20017df8 a SAM_HEAP_END
20017f00 a SAM_PROFILER_BUFFER_BEGIN
20017f00 a SAM_PROFILER_BUFFER_BEGIN
20017f00 a SAM_PROFILER_BUFFER_BEGIN
20017ff8 a SAM_PROFILER_BUFFER_END
20017ff8 a SAM_PROFILER_BUFFER_END
20017ff8 a SAM_PROFILER_BUFFER_END
20000000 a SAM_STACK_BOTTOM
20000000 a SAM_STACK_BOTTOM
20000000 a SAM_STACK_BOTTOM
20001000 a SAM_STACK_TOP
20001000 a SAM_STACK_TOP
20001000 a SAM_STACK_TOP
0806cb08 T scalbn
08063da4 T SD_DMAEndOfTransferStatus
08064434 T SD_EnableWideBusOperation
08064bd4 T SD_Erase
08064190 T SD_GetCardInfo
08064504 T SD_Init
0806405c T SD_InitializeCards
08063e08 T SD_LowLevel_DMA_RxConfig
08063e70 T SD_LowLevel_DMA_TxConfig
08063db4 T SD_LowLevel_Init
08063edc T SD_PowerON
08064588 T SD_ReadBlock
080644d8 T SD_SelectDeselect
080644c0 T SD_SetDeviceMode
0806484c T SD_WriteBlock
20008278 B SDCardInfo
08063c98 t SDEnWideBus
08064e70 T SDIO_ClearFlag
08064e7c T SDIO_ClearITPendingBit
08064d48 T SDIO_ClockCmd
200082c8 B SDIO_CmdInitStructure
08064e08 T SDIO_DataConfig
20008258 B SDIO_DataInitStructure
08064cec T SDIO_DeInit
08064da0 T SDIO_DMACmd
08064ddc T SDIO_GetCommandResponse
08064e58 T SDIO_GetFlagStatus
08064d6c T SDIO_GetPowerState
08064dec T SDIO_GetResponse
08064d14 T SDIO_Init
20008240 B SDIO_InitStructure
0803ece8 T SDIO_IRQHandler
08064d7c T SDIO_ITConfig
08064e38 T SDIO_ReadData
08064dac T SDIO_SendCommand
08064d54 T SDIO_SetPowerState
08064e48 T SDIO_WriteData
0806cc88 T setlocale
080686e8 T sin
080691ac T sinh
08024a1c T SOFT_Breakpoint
080344a4 T SPI_Cmd
080343d8 T SPI_I2S_DeInit
080344e8 T SPI_I2S_GetFlagStatus
080344c4 T SPI_I2S_ReceiveData
080344c0 T SPI_I2S_SendData
08034440 T SPI_Init
20005698 B SPI_Initialized
200056a0 B SPI_InitStructure
2000569c B SPI_mod
080344cc T SPI_SSOutputCmd
0803448c T SPI_StructInit
0803e9cc T SPI1_IRQHandler
0803ea0c T SPI2_IRQHandler
0803ed68 T SPI3_IRQHandler
08069274 T sqrt
20008274 B SrcBuffer
20000000 R StackBottom
20001000 R StackTop
20001398 D STM32F10x_blConfig_ExternalFlash_NOR
20001354 D STM32F10x_blConfig_InternalFlash
2000137c D STM32F10x_BlockDeviceInfo_ExternalFlash_NOR
20001360 D STM32F10x_BlockDeviceInfo_InternalFlash
200050e4 B STM32F10x_BlockStorageDevice_ExternalFlash_NOR
200050d4 B STM32F10x_BlockStorageDevice_InternalFlash
2000146c D STM32F10x_IBlockStorageDevice_ExternalFlash_NOR
20001438 D STM32F10x_IBlockStorageDevice_InternalFlash
20007bd8 b StopCondition
0806cd12 T strchr
0806cd2e T strcmp
0806cd42 T strcpy
0806eefc T strlen
0806cd52 T strncpy
20001308 D strUfoRadio
0803e064 T SVC_Handler
20001d8c B SystemEvents
08035140 T SystemState_ClearNoLock
08035178 T SystemState_QueryNoLock
08035108 T SystemState_SetNoLock
20004470 B SystemStates
0803e0f4 T SysTick_Handler
0803e160 T TAMPER_IRQHandler
0806875c T tan
080687b0 T tanh
00000001 a TARGETLOCATION_FLASH
00000001 a TARGETLOCATION_FLASH
00000001 a TARGETLOCATION_FLASH
080348ac T TIM_ARRPreloadConfig
08034944 T TIM_ClearFlag
08034964 T TIM_ClearITPendingBit
0803485c T TIM_Cmd
080344f8 T TIM_DeInit
08034890 T TIM_GenerateEvent
0803492c T TIM_GetCounter
08034934 T TIM_GetFlagStatus
0803494c T TIM_GetITStatus
0803ad38 T TIM_HAL_HANDLER
08034878 T TIM_ITConfig
080347d8 T TIM_OC4Init
080348c8 T TIM_OC4PreloadConfig
08034894 T TIM_PrescalerConfig
0803489c T TIM_SelectInputTrigger
0803490c T TIM_SelectMasterSlaveMode
080348dc T TIM_SelectOutputTrigger
080348f4 T TIM_SelectSlaveMode
08034924 T TIM_SetCompare1
08034928 T TIM_SetCompare3
08034718 T TIM_TimeBaseInit
08034848 T TIM_TimeBaseStructInit
0803e6f4 T TIM1_BRK_IRQHandler
0803e7b4 T TIM1_CC_IRQHandler
0803e774 T TIM1_TRG_COM_IRQHandler
0803e734 T TIM1_UP_IRQHandler
0803ef88 T TIM2_IRQHandler
0803e804 T TIM3_IRQHandler
0803e844 T TIM4_IRQHandler
0803ed28 T TIM5_IRQHandler
0803eda8 T TIM6_IRQHandler
0803ede8 T TIM7_IRQHandler
0803eb68 T TIM8_BRK_IRQHandler
0803ec28 T TIM8_CC_IRQHandler
0809e830 T TinyClr_Dat_End
0808ce48 T TinyClr_Dat_Start
20007bd0 b TotalNumberOfBytes
20007bd4 B TransferEnd
200015c8 D TransferError
08089980 T twiddleCoefQ15
0808cb88 t two_over_pi
0808ca48 t TWO52
200045d0 B TxBuffer_Com
20007b18 B updateIDInUse
08034bc8 T USART_ClearITPendingBit
08034b08 T USART_Cmd
0803496c T USART_DeInit
08034b6c T USART_GetFlagStatus
08034b7c T USART_GetITStatus
08034a18 T USART_Init
08034b24 T USART_ITConfig
08034b64 T USART_ReceiveData
08034b5c T USART_SendData
08034af0 T USART_StructInit
0802aa44 T USART1_IRQHandler
0803ea4c T USART2_IRQHandler
0803ea8c T USART3_IRQHandler
0803eba8 T USART4_IRQHandler
0803ebe8 T USART5_IRQHandler
0803e59c T USB_HP_CAN1_TX_IRQHandler
0803e5dc T USB_LP_CAN1_RX0_IRQHandler
0803eb28 T USBWakeUp_IRQHandler
08020208 T VectorRelocate
0806cdd0 T vsnprintf
0808cac8 t Zero
0808cd2c t zeroes.7056
